ARM GAS  C:\Users\shiyu\AppData\Local\Temp\ccAzN8Ta.s 			page 1


   1              		.syntax unified
   2              		.cpu cortex-m3
   3              		.fpu softvfp
   4              		.eabi_attribute 20, 1
   5              		.eabi_attribute 21, 1
   6              		.eabi_attribute 23, 3
   7              		.eabi_attribute 24, 1
   8              		.eabi_attribute 25, 1
   9              		.eabi_attribute 26, 1
  10              		.eabi_attribute 30, 1
  11              		.eabi_attribute 34, 1
  12              		.eabi_attribute 18, 4
  13              		.thumb
  14              		.syntax unified
  15              		.file	"ADC_Bypass.c"
  16              		.text
  17              	.Ltext0:
  18              		.cfi_sections	.debug_frame
  19              		.section	.text.ADC_Bypass_Write,"ax",%progbits
  20              		.align	2
  21              		.global	ADC_Bypass_Write
  22              		.thumb
  23              		.thumb_func
  24              		.type	ADC_Bypass_Write, %function
  25              	ADC_Bypass_Write:
  26              	.LFB0:
  27              		.file 1 "Generated_Source\\PSoC5\\ADC_Bypass.c"
   1:Generated_Source\PSoC5/ADC_Bypass.c **** /*******************************************************************************
   2:Generated_Source\PSoC5/ADC_Bypass.c **** * File Name: ADC_Bypass.c  
   3:Generated_Source\PSoC5/ADC_Bypass.c **** * Version 1.90
   4:Generated_Source\PSoC5/ADC_Bypass.c **** *
   5:Generated_Source\PSoC5/ADC_Bypass.c **** * Description:
   6:Generated_Source\PSoC5/ADC_Bypass.c **** *  This file contains API to enable firmware control of a Pins component.
   7:Generated_Source\PSoC5/ADC_Bypass.c **** *
   8:Generated_Source\PSoC5/ADC_Bypass.c **** * Note:
   9:Generated_Source\PSoC5/ADC_Bypass.c **** *
  10:Generated_Source\PSoC5/ADC_Bypass.c **** ********************************************************************************
  11:Generated_Source\PSoC5/ADC_Bypass.c **** * Copyright 2008-2012, Cypress Semiconductor Corporation.  All rights reserved.
  12:Generated_Source\PSoC5/ADC_Bypass.c **** * You may use this file only in accordance with the license, terms, conditions, 
  13:Generated_Source\PSoC5/ADC_Bypass.c **** * disclaimers, and limitations in the end user license agreement accompanying 
  14:Generated_Source\PSoC5/ADC_Bypass.c **** * the software package with which this file was provided.
  15:Generated_Source\PSoC5/ADC_Bypass.c **** *******************************************************************************/
  16:Generated_Source\PSoC5/ADC_Bypass.c **** 
  17:Generated_Source\PSoC5/ADC_Bypass.c **** #include "cytypes.h"
  18:Generated_Source\PSoC5/ADC_Bypass.c **** #include "ADC_Bypass.h"
  19:Generated_Source\PSoC5/ADC_Bypass.c **** 
  20:Generated_Source\PSoC5/ADC_Bypass.c **** /* APIs are not generated for P15[7:6] on PSoC 5 */
  21:Generated_Source\PSoC5/ADC_Bypass.c **** #if !(CY_PSOC5A &&\
  22:Generated_Source\PSoC5/ADC_Bypass.c **** 	 ADC_Bypass__PORT == 15 && ((ADC_Bypass__MASK & 0xC0) != 0))
  23:Generated_Source\PSoC5/ADC_Bypass.c **** 
  24:Generated_Source\PSoC5/ADC_Bypass.c **** 
  25:Generated_Source\PSoC5/ADC_Bypass.c **** /*******************************************************************************
  26:Generated_Source\PSoC5/ADC_Bypass.c **** * Function Name: ADC_Bypass_Write
  27:Generated_Source\PSoC5/ADC_Bypass.c **** ********************************************************************************
  28:Generated_Source\PSoC5/ADC_Bypass.c **** *
  29:Generated_Source\PSoC5/ADC_Bypass.c **** * Summary:
  30:Generated_Source\PSoC5/ADC_Bypass.c **** *  Assign a new value to the digital port's data output register.  
ARM GAS  C:\Users\shiyu\AppData\Local\Temp\ccAzN8Ta.s 			page 2


  31:Generated_Source\PSoC5/ADC_Bypass.c **** *
  32:Generated_Source\PSoC5/ADC_Bypass.c **** * Parameters:  
  33:Generated_Source\PSoC5/ADC_Bypass.c **** *  prtValue:  The value to be assigned to the Digital Port. 
  34:Generated_Source\PSoC5/ADC_Bypass.c **** *
  35:Generated_Source\PSoC5/ADC_Bypass.c **** * Return: 
  36:Generated_Source\PSoC5/ADC_Bypass.c **** *  None
  37:Generated_Source\PSoC5/ADC_Bypass.c **** *  
  38:Generated_Source\PSoC5/ADC_Bypass.c **** *******************************************************************************/
  39:Generated_Source\PSoC5/ADC_Bypass.c **** void ADC_Bypass_Write(uint8 value) 
  40:Generated_Source\PSoC5/ADC_Bypass.c **** {
  28              		.loc 1 40 0
  29              		.cfi_startproc
  30              		@ args = 0, pretend = 0, frame = 0
  31              		@ frame_needed = 0, uses_anonymous_args = 0
  32              		@ link register save eliminated.
  33              	.LVL0:
  41:Generated_Source\PSoC5/ADC_Bypass.c ****     uint8 staticBits = (ADC_Bypass_DR & (uint8)(~ADC_Bypass_MASK));
  34              		.loc 1 41 0
  35 0000 044A     		ldr	r2, .L2
  36 0002 1378     		ldrb	r3, [r2]	@ zero_extendqisi2
  37 0004 03F0FB03 		and	r3, r3, #251
  38              	.LVL1:
  42:Generated_Source\PSoC5/ADC_Bypass.c ****     ADC_Bypass_DR = staticBits | ((uint8)(value << ADC_Bypass_SHIFT) & ADC_Bypass_MASK);
  39              		.loc 1 42 0
  40 0008 8000     		lsls	r0, r0, #2
  41              	.LVL2:
  42 000a 00F00400 		and	r0, r0, #4
  43 000e 1843     		orrs	r0, r0, r3
  44 0010 1070     		strb	r0, [r2]
  45 0012 7047     		bx	lr
  46              	.L3:
  47              		.align	2
  48              	.L2:
  49 0014 00510040 		.word	1073762560
  50              		.cfi_endproc
  51              	.LFE0:
  52              		.size	ADC_Bypass_Write, .-ADC_Bypass_Write
  53              		.section	.text.ADC_Bypass_SetDriveMode,"ax",%progbits
  54              		.align	2
  55              		.global	ADC_Bypass_SetDriveMode
  56              		.thumb
  57              		.thumb_func
  58              		.type	ADC_Bypass_SetDriveMode, %function
  59              	ADC_Bypass_SetDriveMode:
  60              	.LFB1:
  43:Generated_Source\PSoC5/ADC_Bypass.c **** }
  44:Generated_Source\PSoC5/ADC_Bypass.c **** 
  45:Generated_Source\PSoC5/ADC_Bypass.c **** 
  46:Generated_Source\PSoC5/ADC_Bypass.c **** /*******************************************************************************
  47:Generated_Source\PSoC5/ADC_Bypass.c **** * Function Name: ADC_Bypass_SetDriveMode
  48:Generated_Source\PSoC5/ADC_Bypass.c **** ********************************************************************************
  49:Generated_Source\PSoC5/ADC_Bypass.c **** *
  50:Generated_Source\PSoC5/ADC_Bypass.c **** * Summary:
  51:Generated_Source\PSoC5/ADC_Bypass.c **** *  Change the drive mode on the pins of the port.
  52:Generated_Source\PSoC5/ADC_Bypass.c **** * 
  53:Generated_Source\PSoC5/ADC_Bypass.c **** * Parameters:  
  54:Generated_Source\PSoC5/ADC_Bypass.c **** *  mode:  Change the pins to this drive mode.
ARM GAS  C:\Users\shiyu\AppData\Local\Temp\ccAzN8Ta.s 			page 3


  55:Generated_Source\PSoC5/ADC_Bypass.c **** *
  56:Generated_Source\PSoC5/ADC_Bypass.c **** * Return: 
  57:Generated_Source\PSoC5/ADC_Bypass.c **** *  None
  58:Generated_Source\PSoC5/ADC_Bypass.c **** *
  59:Generated_Source\PSoC5/ADC_Bypass.c **** *******************************************************************************/
  60:Generated_Source\PSoC5/ADC_Bypass.c **** void ADC_Bypass_SetDriveMode(uint8 mode) 
  61:Generated_Source\PSoC5/ADC_Bypass.c **** {
  61              		.loc 1 61 0
  62              		.cfi_startproc
  63              		@ args = 0, pretend = 0, frame = 0
  64              		@ frame_needed = 0, uses_anonymous_args = 0
  65              		@ link register save eliminated.
  66              	.LVL3:
  62:Generated_Source\PSoC5/ADC_Bypass.c **** 	CyPins_SetPinDriveMode(ADC_Bypass_0, mode);
  67              		.loc 1 62 0
  68 0000 044A     		ldr	r2, .L5
  69 0002 1378     		ldrb	r3, [r2]	@ zero_extendqisi2
  70 0004 03F0F103 		and	r3, r3, #241
  71 0008 00F00E00 		and	r0, r0, #14
  72              	.LVL4:
  73 000c 1843     		orrs	r0, r0, r3
  74 000e 1070     		strb	r0, [r2]
  75 0010 7047     		bx	lr
  76              	.L6:
  77 0012 00BF     		.align	2
  78              	.L5:
  79 0014 02500040 		.word	1073762306
  80              		.cfi_endproc
  81              	.LFE1:
  82              		.size	ADC_Bypass_SetDriveMode, .-ADC_Bypass_SetDriveMode
  83              		.section	.text.ADC_Bypass_Read,"ax",%progbits
  84              		.align	2
  85              		.global	ADC_Bypass_Read
  86              		.thumb
  87              		.thumb_func
  88              		.type	ADC_Bypass_Read, %function
  89              	ADC_Bypass_Read:
  90              	.LFB2:
  63:Generated_Source\PSoC5/ADC_Bypass.c **** }
  64:Generated_Source\PSoC5/ADC_Bypass.c **** 
  65:Generated_Source\PSoC5/ADC_Bypass.c **** 
  66:Generated_Source\PSoC5/ADC_Bypass.c **** /*******************************************************************************
  67:Generated_Source\PSoC5/ADC_Bypass.c **** * Function Name: ADC_Bypass_Read
  68:Generated_Source\PSoC5/ADC_Bypass.c **** ********************************************************************************
  69:Generated_Source\PSoC5/ADC_Bypass.c **** *
  70:Generated_Source\PSoC5/ADC_Bypass.c **** * Summary:
  71:Generated_Source\PSoC5/ADC_Bypass.c **** *  Read the current value on the pins of the Digital Port in right justified 
  72:Generated_Source\PSoC5/ADC_Bypass.c **** *  form.
  73:Generated_Source\PSoC5/ADC_Bypass.c **** *
  74:Generated_Source\PSoC5/ADC_Bypass.c **** * Parameters:  
  75:Generated_Source\PSoC5/ADC_Bypass.c **** *  None
  76:Generated_Source\PSoC5/ADC_Bypass.c **** *
  77:Generated_Source\PSoC5/ADC_Bypass.c **** * Return: 
  78:Generated_Source\PSoC5/ADC_Bypass.c **** *  Returns the current value of the Digital Port as a right justified number
  79:Generated_Source\PSoC5/ADC_Bypass.c **** *  
  80:Generated_Source\PSoC5/ADC_Bypass.c **** * Note:
  81:Generated_Source\PSoC5/ADC_Bypass.c **** *  Macro ADC_Bypass_ReadPS calls this function. 
ARM GAS  C:\Users\shiyu\AppData\Local\Temp\ccAzN8Ta.s 			page 4


  82:Generated_Source\PSoC5/ADC_Bypass.c **** *  
  83:Generated_Source\PSoC5/ADC_Bypass.c **** *******************************************************************************/
  84:Generated_Source\PSoC5/ADC_Bypass.c **** uint8 ADC_Bypass_Read(void) 
  85:Generated_Source\PSoC5/ADC_Bypass.c **** {
  91              		.loc 1 85 0
  92              		.cfi_startproc
  93              		@ args = 0, pretend = 0, frame = 0
  94              		@ frame_needed = 0, uses_anonymous_args = 0
  95              		@ link register save eliminated.
  86:Generated_Source\PSoC5/ADC_Bypass.c ****     return (ADC_Bypass_PS & ADC_Bypass_MASK) >> ADC_Bypass_SHIFT;
  96              		.loc 1 86 0
  97 0000 024B     		ldr	r3, .L8
  98 0002 1878     		ldrb	r0, [r3]	@ zero_extendqisi2
  87:Generated_Source\PSoC5/ADC_Bypass.c **** }
  99              		.loc 1 87 0
 100 0004 C0F38000 		ubfx	r0, r0, #2, #1
 101 0008 7047     		bx	lr
 102              	.L9:
 103 000a 00BF     		.align	2
 104              	.L8:
 105 000c 01510040 		.word	1073762561
 106              		.cfi_endproc
 107              	.LFE2:
 108              		.size	ADC_Bypass_Read, .-ADC_Bypass_Read
 109              		.section	.text.ADC_Bypass_ReadDataReg,"ax",%progbits
 110              		.align	2
 111              		.global	ADC_Bypass_ReadDataReg
 112              		.thumb
 113              		.thumb_func
 114              		.type	ADC_Bypass_ReadDataReg, %function
 115              	ADC_Bypass_ReadDataReg:
 116              	.LFB3:
  88:Generated_Source\PSoC5/ADC_Bypass.c **** 
  89:Generated_Source\PSoC5/ADC_Bypass.c **** 
  90:Generated_Source\PSoC5/ADC_Bypass.c **** /*******************************************************************************
  91:Generated_Source\PSoC5/ADC_Bypass.c **** * Function Name: ADC_Bypass_ReadDataReg
  92:Generated_Source\PSoC5/ADC_Bypass.c **** ********************************************************************************
  93:Generated_Source\PSoC5/ADC_Bypass.c **** *
  94:Generated_Source\PSoC5/ADC_Bypass.c **** * Summary:
  95:Generated_Source\PSoC5/ADC_Bypass.c **** *  Read the current value assigned to a Digital Port's data output register
  96:Generated_Source\PSoC5/ADC_Bypass.c **** *
  97:Generated_Source\PSoC5/ADC_Bypass.c **** * Parameters:  
  98:Generated_Source\PSoC5/ADC_Bypass.c **** *  None 
  99:Generated_Source\PSoC5/ADC_Bypass.c **** *
 100:Generated_Source\PSoC5/ADC_Bypass.c **** * Return: 
 101:Generated_Source\PSoC5/ADC_Bypass.c **** *  Returns the current value assigned to the Digital Port's data output register
 102:Generated_Source\PSoC5/ADC_Bypass.c **** *  
 103:Generated_Source\PSoC5/ADC_Bypass.c **** *******************************************************************************/
 104:Generated_Source\PSoC5/ADC_Bypass.c **** uint8 ADC_Bypass_ReadDataReg(void) 
 105:Generated_Source\PSoC5/ADC_Bypass.c **** {
 117              		.loc 1 105 0
 118              		.cfi_startproc
 119              		@ args = 0, pretend = 0, frame = 0
 120              		@ frame_needed = 0, uses_anonymous_args = 0
 121              		@ link register save eliminated.
 106:Generated_Source\PSoC5/ADC_Bypass.c ****     return (ADC_Bypass_DR & ADC_Bypass_MASK) >> ADC_Bypass_SHIFT;
 122              		.loc 1 106 0
ARM GAS  C:\Users\shiyu\AppData\Local\Temp\ccAzN8Ta.s 			page 5


 123 0000 024B     		ldr	r3, .L11
 124 0002 1878     		ldrb	r0, [r3]	@ zero_extendqisi2
 107:Generated_Source\PSoC5/ADC_Bypass.c **** }
 125              		.loc 1 107 0
 126 0004 C0F38000 		ubfx	r0, r0, #2, #1
 127 0008 7047     		bx	lr
 128              	.L12:
 129 000a 00BF     		.align	2
 130              	.L11:
 131 000c 00510040 		.word	1073762560
 132              		.cfi_endproc
 133              	.LFE3:
 134              		.size	ADC_Bypass_ReadDataReg, .-ADC_Bypass_ReadDataReg
 135              		.text
 136              	.Letext0:
 137              		.file 2 "Generated_Source\\PSoC5\\cytypes.h"