ARM GAS  C:\Users\shiyu\AppData\Local\Temp\cc4twyMF.s 			page 1


   1              		.syntax unified
   2              		.cpu cortex-m3
   3              		.fpu softvfp
   4              		.eabi_attribute 20, 1
   5              		.eabi_attribute 21, 1
   6              		.eabi_attribute 23, 3
   7              		.eabi_attribute 24, 1
   8              		.eabi_attribute 25, 1
   9              		.eabi_attribute 26, 1
  10              		.eabi_attribute 30, 1
  11              		.eabi_attribute 34, 1
  12              		.eabi_attribute 18, 4
  13              		.thumb
  14              		.syntax unified
  15              		.file	"ADC_SAR_1_IRQ.c"
  16              		.text
  17              	.Ltext0:
  18              		.cfi_sections	.debug_frame
  19              		.section	.text.ADC_SAR_1_IRQ_Interrupt,"ax",%progbits
  20              		.align	2
  21              		.global	ADC_SAR_1_IRQ_Interrupt
  22              		.thumb
  23              		.thumb_func
  24              		.type	ADC_SAR_1_IRQ_Interrupt, %function
  25              	ADC_SAR_1_IRQ_Interrupt:
  26              	.LFB3:
  27              		.file 1 "Generated_Source\\PSoC5\\ADC_SAR_1_IRQ.c"
   1:Generated_Source\PSoC5/ADC_SAR_1_IRQ.c **** /*******************************************************************************
   2:Generated_Source\PSoC5/ADC_SAR_1_IRQ.c **** * File Name: ADC_SAR_1_IRQ.c  
   3:Generated_Source\PSoC5/ADC_SAR_1_IRQ.c **** * Version 1.70
   4:Generated_Source\PSoC5/ADC_SAR_1_IRQ.c **** *
   5:Generated_Source\PSoC5/ADC_SAR_1_IRQ.c **** *  Description:
   6:Generated_Source\PSoC5/ADC_SAR_1_IRQ.c **** *   API for controlling the state of an interrupt.
   7:Generated_Source\PSoC5/ADC_SAR_1_IRQ.c **** *
   8:Generated_Source\PSoC5/ADC_SAR_1_IRQ.c **** *
   9:Generated_Source\PSoC5/ADC_SAR_1_IRQ.c **** *  Note:
  10:Generated_Source\PSoC5/ADC_SAR_1_IRQ.c **** *
  11:Generated_Source\PSoC5/ADC_SAR_1_IRQ.c **** ********************************************************************************
  12:Generated_Source\PSoC5/ADC_SAR_1_IRQ.c **** * Copyright 2008-2015, Cypress Semiconductor Corporation.  All rights reserved.
  13:Generated_Source\PSoC5/ADC_SAR_1_IRQ.c **** * You may use this file only in accordance with the license, terms, conditions, 
  14:Generated_Source\PSoC5/ADC_SAR_1_IRQ.c **** * disclaimers, and limitations in the end user license agreement accompanying 
  15:Generated_Source\PSoC5/ADC_SAR_1_IRQ.c **** * the software package with which this file was provided.
  16:Generated_Source\PSoC5/ADC_SAR_1_IRQ.c **** *******************************************************************************/
  17:Generated_Source\PSoC5/ADC_SAR_1_IRQ.c **** 
  18:Generated_Source\PSoC5/ADC_SAR_1_IRQ.c **** 
  19:Generated_Source\PSoC5/ADC_SAR_1_IRQ.c **** #include <cydevice_trm.h>
  20:Generated_Source\PSoC5/ADC_SAR_1_IRQ.c **** #include <CyLib.h>
  21:Generated_Source\PSoC5/ADC_SAR_1_IRQ.c **** #include <ADC_SAR_1_IRQ.h>
  22:Generated_Source\PSoC5/ADC_SAR_1_IRQ.c **** 
  23:Generated_Source\PSoC5/ADC_SAR_1_IRQ.c **** 
  24:Generated_Source\PSoC5/ADC_SAR_1_IRQ.c **** #if !defined(ADC_SAR_1_IRQ__REMOVED) /* Check for removal by optimization */
  25:Generated_Source\PSoC5/ADC_SAR_1_IRQ.c **** 
  26:Generated_Source\PSoC5/ADC_SAR_1_IRQ.c **** /*******************************************************************************
  27:Generated_Source\PSoC5/ADC_SAR_1_IRQ.c **** *  Place your includes, defines and code here 
  28:Generated_Source\PSoC5/ADC_SAR_1_IRQ.c **** ********************************************************************************/
  29:Generated_Source\PSoC5/ADC_SAR_1_IRQ.c **** /* `#START ADC_SAR_1_IRQ_intc` */
  30:Generated_Source\PSoC5/ADC_SAR_1_IRQ.c **** 
ARM GAS  C:\Users\shiyu\AppData\Local\Temp\cc4twyMF.s 			page 2


  31:Generated_Source\PSoC5/ADC_SAR_1_IRQ.c **** /* `#END` */
  32:Generated_Source\PSoC5/ADC_SAR_1_IRQ.c **** 
  33:Generated_Source\PSoC5/ADC_SAR_1_IRQ.c **** #ifndef CYINT_IRQ_BASE
  34:Generated_Source\PSoC5/ADC_SAR_1_IRQ.c **** #define CYINT_IRQ_BASE      16
  35:Generated_Source\PSoC5/ADC_SAR_1_IRQ.c **** #endif /* CYINT_IRQ_BASE */
  36:Generated_Source\PSoC5/ADC_SAR_1_IRQ.c **** #ifndef CYINT_VECT_TABLE
  37:Generated_Source\PSoC5/ADC_SAR_1_IRQ.c **** #define CYINT_VECT_TABLE    ((cyisraddress **) CYREG_NVIC_VECT_OFFSET)
  38:Generated_Source\PSoC5/ADC_SAR_1_IRQ.c **** #endif /* CYINT_VECT_TABLE */
  39:Generated_Source\PSoC5/ADC_SAR_1_IRQ.c **** 
  40:Generated_Source\PSoC5/ADC_SAR_1_IRQ.c **** /* Declared in startup, used to set unused interrupts to. */
  41:Generated_Source\PSoC5/ADC_SAR_1_IRQ.c **** CY_ISR_PROTO(IntDefaultHandler);
  42:Generated_Source\PSoC5/ADC_SAR_1_IRQ.c **** 
  43:Generated_Source\PSoC5/ADC_SAR_1_IRQ.c **** 
  44:Generated_Source\PSoC5/ADC_SAR_1_IRQ.c **** /*******************************************************************************
  45:Generated_Source\PSoC5/ADC_SAR_1_IRQ.c **** * Function Name: ADC_SAR_1_IRQ_Start
  46:Generated_Source\PSoC5/ADC_SAR_1_IRQ.c **** ********************************************************************************
  47:Generated_Source\PSoC5/ADC_SAR_1_IRQ.c **** *
  48:Generated_Source\PSoC5/ADC_SAR_1_IRQ.c **** * Summary:
  49:Generated_Source\PSoC5/ADC_SAR_1_IRQ.c **** *  Set up the interrupt and enable it. This function disables the interrupt, 
  50:Generated_Source\PSoC5/ADC_SAR_1_IRQ.c **** *  sets the default interrupt vector, sets the priority from the value in the
  51:Generated_Source\PSoC5/ADC_SAR_1_IRQ.c **** *  Design Wide Resources Interrupt Editor, then enables the interrupt to the 
  52:Generated_Source\PSoC5/ADC_SAR_1_IRQ.c **** *  interrupt controller.
  53:Generated_Source\PSoC5/ADC_SAR_1_IRQ.c **** *
  54:Generated_Source\PSoC5/ADC_SAR_1_IRQ.c **** * Parameters:  
  55:Generated_Source\PSoC5/ADC_SAR_1_IRQ.c **** *   None
  56:Generated_Source\PSoC5/ADC_SAR_1_IRQ.c **** *
  57:Generated_Source\PSoC5/ADC_SAR_1_IRQ.c **** * Return:
  58:Generated_Source\PSoC5/ADC_SAR_1_IRQ.c **** *   None
  59:Generated_Source\PSoC5/ADC_SAR_1_IRQ.c **** *
  60:Generated_Source\PSoC5/ADC_SAR_1_IRQ.c **** *******************************************************************************/
  61:Generated_Source\PSoC5/ADC_SAR_1_IRQ.c **** void ADC_SAR_1_IRQ_Start(void)
  62:Generated_Source\PSoC5/ADC_SAR_1_IRQ.c **** {
  63:Generated_Source\PSoC5/ADC_SAR_1_IRQ.c ****     /* For all we know the interrupt is active. */
  64:Generated_Source\PSoC5/ADC_SAR_1_IRQ.c ****     ADC_SAR_1_IRQ_Disable();
  65:Generated_Source\PSoC5/ADC_SAR_1_IRQ.c **** 
  66:Generated_Source\PSoC5/ADC_SAR_1_IRQ.c ****     /* Set the ISR to point to the ADC_SAR_1_IRQ Interrupt. */
  67:Generated_Source\PSoC5/ADC_SAR_1_IRQ.c ****     ADC_SAR_1_IRQ_SetVector(&ADC_SAR_1_IRQ_Interrupt);
  68:Generated_Source\PSoC5/ADC_SAR_1_IRQ.c **** 
  69:Generated_Source\PSoC5/ADC_SAR_1_IRQ.c ****     /* Set the priority. */
  70:Generated_Source\PSoC5/ADC_SAR_1_IRQ.c ****     ADC_SAR_1_IRQ_SetPriority((uint8)ADC_SAR_1_IRQ_INTC_PRIOR_NUMBER);
  71:Generated_Source\PSoC5/ADC_SAR_1_IRQ.c **** 
  72:Generated_Source\PSoC5/ADC_SAR_1_IRQ.c ****     /* Enable it. */
  73:Generated_Source\PSoC5/ADC_SAR_1_IRQ.c ****     ADC_SAR_1_IRQ_Enable();
  74:Generated_Source\PSoC5/ADC_SAR_1_IRQ.c **** }
  75:Generated_Source\PSoC5/ADC_SAR_1_IRQ.c **** 
  76:Generated_Source\PSoC5/ADC_SAR_1_IRQ.c **** 
  77:Generated_Source\PSoC5/ADC_SAR_1_IRQ.c **** /*******************************************************************************
  78:Generated_Source\PSoC5/ADC_SAR_1_IRQ.c **** * Function Name: ADC_SAR_1_IRQ_StartEx
  79:Generated_Source\PSoC5/ADC_SAR_1_IRQ.c **** ********************************************************************************
  80:Generated_Source\PSoC5/ADC_SAR_1_IRQ.c **** *
  81:Generated_Source\PSoC5/ADC_SAR_1_IRQ.c **** * Summary:
  82:Generated_Source\PSoC5/ADC_SAR_1_IRQ.c **** *  Sets up the interrupt and enables it. This function disables the interrupt,
  83:Generated_Source\PSoC5/ADC_SAR_1_IRQ.c **** *  sets the interrupt vector based on the address passed in, sets the priority 
  84:Generated_Source\PSoC5/ADC_SAR_1_IRQ.c **** *  from the value in the Design Wide Resources Interrupt Editor, then enables 
  85:Generated_Source\PSoC5/ADC_SAR_1_IRQ.c **** *  the interrupt to the interrupt controller.
  86:Generated_Source\PSoC5/ADC_SAR_1_IRQ.c **** *  
  87:Generated_Source\PSoC5/ADC_SAR_1_IRQ.c **** *  When defining ISR functions, the CY_ISR and CY_ISR_PROTO macros should be 
ARM GAS  C:\Users\shiyu\AppData\Local\Temp\cc4twyMF.s 			page 3


  88:Generated_Source\PSoC5/ADC_SAR_1_IRQ.c **** *  used to provide consistent definition across compilers:
  89:Generated_Source\PSoC5/ADC_SAR_1_IRQ.c **** *  
  90:Generated_Source\PSoC5/ADC_SAR_1_IRQ.c **** *  Function definition example:
  91:Generated_Source\PSoC5/ADC_SAR_1_IRQ.c **** *   CY_ISR(MyISR)
  92:Generated_Source\PSoC5/ADC_SAR_1_IRQ.c **** *   {
  93:Generated_Source\PSoC5/ADC_SAR_1_IRQ.c **** *   }
  94:Generated_Source\PSoC5/ADC_SAR_1_IRQ.c **** *   Function prototype example:
  95:Generated_Source\PSoC5/ADC_SAR_1_IRQ.c **** *   CY_ISR_PROTO(MyISR);
  96:Generated_Source\PSoC5/ADC_SAR_1_IRQ.c **** *
  97:Generated_Source\PSoC5/ADC_SAR_1_IRQ.c **** * Parameters:  
  98:Generated_Source\PSoC5/ADC_SAR_1_IRQ.c **** *   address: Address of the ISR to set in the interrupt vector table.
  99:Generated_Source\PSoC5/ADC_SAR_1_IRQ.c **** *
 100:Generated_Source\PSoC5/ADC_SAR_1_IRQ.c **** * Return:
 101:Generated_Source\PSoC5/ADC_SAR_1_IRQ.c **** *   None
 102:Generated_Source\PSoC5/ADC_SAR_1_IRQ.c **** *
 103:Generated_Source\PSoC5/ADC_SAR_1_IRQ.c **** *******************************************************************************/
 104:Generated_Source\PSoC5/ADC_SAR_1_IRQ.c **** void ADC_SAR_1_IRQ_StartEx(cyisraddress address)
 105:Generated_Source\PSoC5/ADC_SAR_1_IRQ.c **** {
 106:Generated_Source\PSoC5/ADC_SAR_1_IRQ.c ****     /* For all we know the interrupt is active. */
 107:Generated_Source\PSoC5/ADC_SAR_1_IRQ.c ****     ADC_SAR_1_IRQ_Disable();
 108:Generated_Source\PSoC5/ADC_SAR_1_IRQ.c **** 
 109:Generated_Source\PSoC5/ADC_SAR_1_IRQ.c ****     /* Set the ISR to point to the ADC_SAR_1_IRQ Interrupt. */
 110:Generated_Source\PSoC5/ADC_SAR_1_IRQ.c ****     ADC_SAR_1_IRQ_SetVector(address);
 111:Generated_Source\PSoC5/ADC_SAR_1_IRQ.c **** 
 112:Generated_Source\PSoC5/ADC_SAR_1_IRQ.c ****     /* Set the priority. */
 113:Generated_Source\PSoC5/ADC_SAR_1_IRQ.c ****     ADC_SAR_1_IRQ_SetPriority((uint8)ADC_SAR_1_IRQ_INTC_PRIOR_NUMBER);
 114:Generated_Source\PSoC5/ADC_SAR_1_IRQ.c **** 
 115:Generated_Source\PSoC5/ADC_SAR_1_IRQ.c ****     /* Enable it. */
 116:Generated_Source\PSoC5/ADC_SAR_1_IRQ.c ****     ADC_SAR_1_IRQ_Enable();
 117:Generated_Source\PSoC5/ADC_SAR_1_IRQ.c **** }
 118:Generated_Source\PSoC5/ADC_SAR_1_IRQ.c **** 
 119:Generated_Source\PSoC5/ADC_SAR_1_IRQ.c **** 
 120:Generated_Source\PSoC5/ADC_SAR_1_IRQ.c **** /*******************************************************************************
 121:Generated_Source\PSoC5/ADC_SAR_1_IRQ.c **** * Function Name: ADC_SAR_1_IRQ_Stop
 122:Generated_Source\PSoC5/ADC_SAR_1_IRQ.c **** ********************************************************************************
 123:Generated_Source\PSoC5/ADC_SAR_1_IRQ.c **** *
 124:Generated_Source\PSoC5/ADC_SAR_1_IRQ.c **** * Summary:
 125:Generated_Source\PSoC5/ADC_SAR_1_IRQ.c **** *   Disables and removes the interrupt.
 126:Generated_Source\PSoC5/ADC_SAR_1_IRQ.c **** *
 127:Generated_Source\PSoC5/ADC_SAR_1_IRQ.c **** * Parameters:  
 128:Generated_Source\PSoC5/ADC_SAR_1_IRQ.c **** *   None
 129:Generated_Source\PSoC5/ADC_SAR_1_IRQ.c **** *
 130:Generated_Source\PSoC5/ADC_SAR_1_IRQ.c **** * Return:
 131:Generated_Source\PSoC5/ADC_SAR_1_IRQ.c **** *   None
 132:Generated_Source\PSoC5/ADC_SAR_1_IRQ.c **** *
 133:Generated_Source\PSoC5/ADC_SAR_1_IRQ.c **** *******************************************************************************/
 134:Generated_Source\PSoC5/ADC_SAR_1_IRQ.c **** void ADC_SAR_1_IRQ_Stop(void)
 135:Generated_Source\PSoC5/ADC_SAR_1_IRQ.c **** {
 136:Generated_Source\PSoC5/ADC_SAR_1_IRQ.c ****     /* Disable this interrupt. */
 137:Generated_Source\PSoC5/ADC_SAR_1_IRQ.c ****     ADC_SAR_1_IRQ_Disable();
 138:Generated_Source\PSoC5/ADC_SAR_1_IRQ.c **** 
 139:Generated_Source\PSoC5/ADC_SAR_1_IRQ.c ****     /* Set the ISR to point to the passive one. */
 140:Generated_Source\PSoC5/ADC_SAR_1_IRQ.c ****     ADC_SAR_1_IRQ_SetVector(&IntDefaultHandler);
 141:Generated_Source\PSoC5/ADC_SAR_1_IRQ.c **** }
 142:Generated_Source\PSoC5/ADC_SAR_1_IRQ.c **** 
 143:Generated_Source\PSoC5/ADC_SAR_1_IRQ.c **** 
 144:Generated_Source\PSoC5/ADC_SAR_1_IRQ.c **** /*******************************************************************************
ARM GAS  C:\Users\shiyu\AppData\Local\Temp\cc4twyMF.s 			page 4


 145:Generated_Source\PSoC5/ADC_SAR_1_IRQ.c **** * Function Name: ADC_SAR_1_IRQ_Interrupt
 146:Generated_Source\PSoC5/ADC_SAR_1_IRQ.c **** ********************************************************************************
 147:Generated_Source\PSoC5/ADC_SAR_1_IRQ.c **** *
 148:Generated_Source\PSoC5/ADC_SAR_1_IRQ.c **** * Summary:
 149:Generated_Source\PSoC5/ADC_SAR_1_IRQ.c **** *   The default Interrupt Service Routine for ADC_SAR_1_IRQ.
 150:Generated_Source\PSoC5/ADC_SAR_1_IRQ.c **** *
 151:Generated_Source\PSoC5/ADC_SAR_1_IRQ.c **** *   Add custom code between the coments to keep the next version of this file
 152:Generated_Source\PSoC5/ADC_SAR_1_IRQ.c **** *   from over writting your code.
 153:Generated_Source\PSoC5/ADC_SAR_1_IRQ.c **** *
 154:Generated_Source\PSoC5/ADC_SAR_1_IRQ.c **** * Parameters:  
 155:Generated_Source\PSoC5/ADC_SAR_1_IRQ.c **** *
 156:Generated_Source\PSoC5/ADC_SAR_1_IRQ.c **** * Return:
 157:Generated_Source\PSoC5/ADC_SAR_1_IRQ.c **** *   None
 158:Generated_Source\PSoC5/ADC_SAR_1_IRQ.c **** *
 159:Generated_Source\PSoC5/ADC_SAR_1_IRQ.c **** *******************************************************************************/
 160:Generated_Source\PSoC5/ADC_SAR_1_IRQ.c **** CY_ISR(ADC_SAR_1_IRQ_Interrupt)
 161:Generated_Source\PSoC5/ADC_SAR_1_IRQ.c **** {
  28              		.loc 1 161 0
  29              		.cfi_startproc
  30              		@ args = 0, pretend = 0, frame = 0
  31              		@ frame_needed = 0, uses_anonymous_args = 0
  32              		@ link register save eliminated.
  33 0000 7047     		bx	lr
  34              		.cfi_endproc
  35              	.LFE3:
  36              		.size	ADC_SAR_1_IRQ_Interrupt, .-ADC_SAR_1_IRQ_Interrupt
  37 0002 00BF     		.section	.text.ADC_SAR_1_IRQ_SetVector,"ax",%progbits
  38              		.align	2
  39              		.global	ADC_SAR_1_IRQ_SetVector
  40              		.thumb
  41              		.thumb_func
  42              		.type	ADC_SAR_1_IRQ_SetVector, %function
  43              	ADC_SAR_1_IRQ_SetVector:
  44              	.LFB4:
 162:Generated_Source\PSoC5/ADC_SAR_1_IRQ.c ****     #ifdef ADC_SAR_1_IRQ_INTERRUPT_INTERRUPT_CALLBACK
 163:Generated_Source\PSoC5/ADC_SAR_1_IRQ.c ****         ADC_SAR_1_IRQ_Interrupt_InterruptCallback();
 164:Generated_Source\PSoC5/ADC_SAR_1_IRQ.c ****     #endif /* ADC_SAR_1_IRQ_INTERRUPT_INTERRUPT_CALLBACK */ 
 165:Generated_Source\PSoC5/ADC_SAR_1_IRQ.c **** 
 166:Generated_Source\PSoC5/ADC_SAR_1_IRQ.c ****     /*  Place your Interrupt code here. */
 167:Generated_Source\PSoC5/ADC_SAR_1_IRQ.c ****     /* `#START ADC_SAR_1_IRQ_Interrupt` */
 168:Generated_Source\PSoC5/ADC_SAR_1_IRQ.c **** 
 169:Generated_Source\PSoC5/ADC_SAR_1_IRQ.c ****     /* `#END` */
 170:Generated_Source\PSoC5/ADC_SAR_1_IRQ.c **** }
 171:Generated_Source\PSoC5/ADC_SAR_1_IRQ.c **** 
 172:Generated_Source\PSoC5/ADC_SAR_1_IRQ.c **** 
 173:Generated_Source\PSoC5/ADC_SAR_1_IRQ.c **** /*******************************************************************************
 174:Generated_Source\PSoC5/ADC_SAR_1_IRQ.c **** * Function Name: ADC_SAR_1_IRQ_SetVector
 175:Generated_Source\PSoC5/ADC_SAR_1_IRQ.c **** ********************************************************************************
 176:Generated_Source\PSoC5/ADC_SAR_1_IRQ.c **** *
 177:Generated_Source\PSoC5/ADC_SAR_1_IRQ.c **** * Summary:
 178:Generated_Source\PSoC5/ADC_SAR_1_IRQ.c **** *   Change the ISR vector for the Interrupt. Note calling ADC_SAR_1_IRQ_Start
 179:Generated_Source\PSoC5/ADC_SAR_1_IRQ.c **** *   will override any effect this method would have had. To set the vector 
 180:Generated_Source\PSoC5/ADC_SAR_1_IRQ.c **** *   before the component has been started use ADC_SAR_1_IRQ_StartEx instead.
 181:Generated_Source\PSoC5/ADC_SAR_1_IRQ.c **** * 
 182:Generated_Source\PSoC5/ADC_SAR_1_IRQ.c **** *   When defining ISR functions, the CY_ISR and CY_ISR_PROTO macros should be 
 183:Generated_Source\PSoC5/ADC_SAR_1_IRQ.c **** *   used to provide consistent definition across compilers:
 184:Generated_Source\PSoC5/ADC_SAR_1_IRQ.c **** *
ARM GAS  C:\Users\shiyu\AppData\Local\Temp\cc4twyMF.s 			page 5


 185:Generated_Source\PSoC5/ADC_SAR_1_IRQ.c **** *   Function definition example:
 186:Generated_Source\PSoC5/ADC_SAR_1_IRQ.c **** *   CY_ISR(MyISR)
 187:Generated_Source\PSoC5/ADC_SAR_1_IRQ.c **** *   {
 188:Generated_Source\PSoC5/ADC_SAR_1_IRQ.c **** *   }
 189:Generated_Source\PSoC5/ADC_SAR_1_IRQ.c **** *
 190:Generated_Source\PSoC5/ADC_SAR_1_IRQ.c **** *   Function prototype example:
 191:Generated_Source\PSoC5/ADC_SAR_1_IRQ.c **** *     CY_ISR_PROTO(MyISR);
 192:Generated_Source\PSoC5/ADC_SAR_1_IRQ.c **** *
 193:Generated_Source\PSoC5/ADC_SAR_1_IRQ.c **** * Parameters:
 194:Generated_Source\PSoC5/ADC_SAR_1_IRQ.c **** *   address: Address of the ISR to set in the interrupt vector table.
 195:Generated_Source\PSoC5/ADC_SAR_1_IRQ.c **** *
 196:Generated_Source\PSoC5/ADC_SAR_1_IRQ.c **** * Return:
 197:Generated_Source\PSoC5/ADC_SAR_1_IRQ.c **** *   None
 198:Generated_Source\PSoC5/ADC_SAR_1_IRQ.c **** *
 199:Generated_Source\PSoC5/ADC_SAR_1_IRQ.c **** *******************************************************************************/
 200:Generated_Source\PSoC5/ADC_SAR_1_IRQ.c **** void ADC_SAR_1_IRQ_SetVector(cyisraddress address)
 201:Generated_Source\PSoC5/ADC_SAR_1_IRQ.c **** {
  45              		.loc 1 201 0
  46              		.cfi_startproc
  47              		@ args = 0, pretend = 0, frame = 0
  48              		@ frame_needed = 0, uses_anonymous_args = 0
  49              		@ link register save eliminated.
  50              	.LVL0:
 202:Generated_Source\PSoC5/ADC_SAR_1_IRQ.c ****     cyisraddress * ramVectorTable;
 203:Generated_Source\PSoC5/ADC_SAR_1_IRQ.c **** 
 204:Generated_Source\PSoC5/ADC_SAR_1_IRQ.c ****     ramVectorTable = (cyisraddress *) *CYINT_VECT_TABLE;
  51              		.loc 1 204 0
  52 0000 014B     		ldr	r3, .L3
  53 0002 1B68     		ldr	r3, [r3]
  54              	.LVL1:
 205:Generated_Source\PSoC5/ADC_SAR_1_IRQ.c **** 
 206:Generated_Source\PSoC5/ADC_SAR_1_IRQ.c ****     ramVectorTable[CYINT_IRQ_BASE + (uint32)ADC_SAR_1_IRQ__INTC_NUMBER] = address;
  55              		.loc 1 206 0
  56 0004 5864     		str	r0, [r3, #68]
  57 0006 7047     		bx	lr
  58              	.L4:
  59              		.align	2
  60              	.L3:
  61 0008 08ED00E0 		.word	-536810232
  62              		.cfi_endproc
  63              	.LFE4:
  64              		.size	ADC_SAR_1_IRQ_SetVector, .-ADC_SAR_1_IRQ_SetVector
  65              		.section	.text.ADC_SAR_1_IRQ_GetVector,"ax",%progbits
  66              		.align	2
  67              		.global	ADC_SAR_1_IRQ_GetVector
  68              		.thumb
  69              		.thumb_func
  70              		.type	ADC_SAR_1_IRQ_GetVector, %function
  71              	ADC_SAR_1_IRQ_GetVector:
  72              	.LFB5:
 207:Generated_Source\PSoC5/ADC_SAR_1_IRQ.c **** }
 208:Generated_Source\PSoC5/ADC_SAR_1_IRQ.c **** 
 209:Generated_Source\PSoC5/ADC_SAR_1_IRQ.c **** 
 210:Generated_Source\PSoC5/ADC_SAR_1_IRQ.c **** /*******************************************************************************
 211:Generated_Source\PSoC5/ADC_SAR_1_IRQ.c **** * Function Name: ADC_SAR_1_IRQ_GetVector
 212:Generated_Source\PSoC5/ADC_SAR_1_IRQ.c **** ********************************************************************************
 213:Generated_Source\PSoC5/ADC_SAR_1_IRQ.c **** *
ARM GAS  C:\Users\shiyu\AppData\Local\Temp\cc4twyMF.s 			page 6


 214:Generated_Source\PSoC5/ADC_SAR_1_IRQ.c **** * Summary:
 215:Generated_Source\PSoC5/ADC_SAR_1_IRQ.c **** *   Gets the "address" of the current ISR vector for the Interrupt.
 216:Generated_Source\PSoC5/ADC_SAR_1_IRQ.c **** *
 217:Generated_Source\PSoC5/ADC_SAR_1_IRQ.c **** * Parameters:
 218:Generated_Source\PSoC5/ADC_SAR_1_IRQ.c **** *   None
 219:Generated_Source\PSoC5/ADC_SAR_1_IRQ.c **** *
 220:Generated_Source\PSoC5/ADC_SAR_1_IRQ.c **** * Return:
 221:Generated_Source\PSoC5/ADC_SAR_1_IRQ.c **** *   Address of the ISR in the interrupt vector table.
 222:Generated_Source\PSoC5/ADC_SAR_1_IRQ.c **** *
 223:Generated_Source\PSoC5/ADC_SAR_1_IRQ.c **** *******************************************************************************/
 224:Generated_Source\PSoC5/ADC_SAR_1_IRQ.c **** cyisraddress ADC_SAR_1_IRQ_GetVector(void)
 225:Generated_Source\PSoC5/ADC_SAR_1_IRQ.c **** {
  73              		.loc 1 225 0
  74              		.cfi_startproc
  75              		@ args = 0, pretend = 0, frame = 0
  76              		@ frame_needed = 0, uses_anonymous_args = 0
  77              		@ link register save eliminated.
 226:Generated_Source\PSoC5/ADC_SAR_1_IRQ.c ****     cyisraddress * ramVectorTable;
 227:Generated_Source\PSoC5/ADC_SAR_1_IRQ.c **** 
 228:Generated_Source\PSoC5/ADC_SAR_1_IRQ.c ****     ramVectorTable = (cyisraddress *) *CYINT_VECT_TABLE;
  78              		.loc 1 228 0
  79 0000 014B     		ldr	r3, .L6
  80 0002 1B68     		ldr	r3, [r3]
  81              	.LVL2:
 229:Generated_Source\PSoC5/ADC_SAR_1_IRQ.c **** 
 230:Generated_Source\PSoC5/ADC_SAR_1_IRQ.c ****     return ramVectorTable[CYINT_IRQ_BASE + (uint32)ADC_SAR_1_IRQ__INTC_NUMBER];
 231:Generated_Source\PSoC5/ADC_SAR_1_IRQ.c **** }
  82              		.loc 1 231 0
  83 0004 586C     		ldr	r0, [r3, #68]
  84 0006 7047     		bx	lr
  85              	.L7:
  86              		.align	2
  87              	.L6:
  88 0008 08ED00E0 		.word	-536810232
  89              		.cfi_endproc
  90              	.LFE5:
  91              		.size	ADC_SAR_1_IRQ_GetVector, .-ADC_SAR_1_IRQ_GetVector
  92              		.section	.text.ADC_SAR_1_IRQ_SetPriority,"ax",%progbits
  93              		.align	2
  94              		.global	ADC_SAR_1_IRQ_SetPriority
  95              		.thumb
  96              		.thumb_func
  97              		.type	ADC_SAR_1_IRQ_SetPriority, %function
  98              	ADC_SAR_1_IRQ_SetPriority:
  99              	.LFB6:
 232:Generated_Source\PSoC5/ADC_SAR_1_IRQ.c **** 
 233:Generated_Source\PSoC5/ADC_SAR_1_IRQ.c **** 
 234:Generated_Source\PSoC5/ADC_SAR_1_IRQ.c **** /*******************************************************************************
 235:Generated_Source\PSoC5/ADC_SAR_1_IRQ.c **** * Function Name: ADC_SAR_1_IRQ_SetPriority
 236:Generated_Source\PSoC5/ADC_SAR_1_IRQ.c **** ********************************************************************************
 237:Generated_Source\PSoC5/ADC_SAR_1_IRQ.c **** *
 238:Generated_Source\PSoC5/ADC_SAR_1_IRQ.c **** * Summary:
 239:Generated_Source\PSoC5/ADC_SAR_1_IRQ.c **** *   Sets the Priority of the Interrupt. 
 240:Generated_Source\PSoC5/ADC_SAR_1_IRQ.c **** *
 241:Generated_Source\PSoC5/ADC_SAR_1_IRQ.c **** *   Note calling ADC_SAR_1_IRQ_Start or ADC_SAR_1_IRQ_StartEx will 
 242:Generated_Source\PSoC5/ADC_SAR_1_IRQ.c **** *   override any effect this API would have had. This API should only be called
 243:Generated_Source\PSoC5/ADC_SAR_1_IRQ.c **** *   after ADC_SAR_1_IRQ_Start or ADC_SAR_1_IRQ_StartEx has been called. 
ARM GAS  C:\Users\shiyu\AppData\Local\Temp\cc4twyMF.s 			page 7


 244:Generated_Source\PSoC5/ADC_SAR_1_IRQ.c **** *   To set the initial priority for the component, use the Design-Wide Resources
 245:Generated_Source\PSoC5/ADC_SAR_1_IRQ.c **** *   Interrupt Editor.
 246:Generated_Source\PSoC5/ADC_SAR_1_IRQ.c **** *
 247:Generated_Source\PSoC5/ADC_SAR_1_IRQ.c **** *   Note This API has no effect on Non-maskable interrupt NMI).
 248:Generated_Source\PSoC5/ADC_SAR_1_IRQ.c **** *
 249:Generated_Source\PSoC5/ADC_SAR_1_IRQ.c **** * Parameters:
 250:Generated_Source\PSoC5/ADC_SAR_1_IRQ.c **** *   priority: Priority of the interrupt, 0 being the highest priority
 251:Generated_Source\PSoC5/ADC_SAR_1_IRQ.c **** *             PSoC 3 and PSoC 5LP: Priority is from 0 to 7.
 252:Generated_Source\PSoC5/ADC_SAR_1_IRQ.c **** *             PSoC 4: Priority is from 0 to 3.
 253:Generated_Source\PSoC5/ADC_SAR_1_IRQ.c **** *
 254:Generated_Source\PSoC5/ADC_SAR_1_IRQ.c **** * Return:
 255:Generated_Source\PSoC5/ADC_SAR_1_IRQ.c **** *   None
 256:Generated_Source\PSoC5/ADC_SAR_1_IRQ.c **** *
 257:Generated_Source\PSoC5/ADC_SAR_1_IRQ.c **** *******************************************************************************/
 258:Generated_Source\PSoC5/ADC_SAR_1_IRQ.c **** void ADC_SAR_1_IRQ_SetPriority(uint8 priority)
 259:Generated_Source\PSoC5/ADC_SAR_1_IRQ.c **** {
 100              		.loc 1 259 0
 101              		.cfi_startproc
 102              		@ args = 0, pretend = 0, frame = 0
 103              		@ frame_needed = 0, uses_anonymous_args = 0
 104              		@ link register save eliminated.
 105              	.LVL3:
 260:Generated_Source\PSoC5/ADC_SAR_1_IRQ.c ****     *ADC_SAR_1_IRQ_INTC_PRIOR = priority << 5;
 106              		.loc 1 260 0
 107 0000 4001     		lsls	r0, r0, #5
 108              	.LVL4:
 109 0002 C0B2     		uxtb	r0, r0
 110 0004 014B     		ldr	r3, .L9
 111 0006 1870     		strb	r0, [r3]
 112 0008 7047     		bx	lr
 113              	.L10:
 114 000a 00BF     		.align	2
 115              	.L9:
 116 000c 01E400E0 		.word	-536812543
 117              		.cfi_endproc
 118              	.LFE6:
 119              		.size	ADC_SAR_1_IRQ_SetPriority, .-ADC_SAR_1_IRQ_SetPriority
 120              		.section	.text.ADC_SAR_1_IRQ_GetPriority,"ax",%progbits
 121              		.align	2
 122              		.global	ADC_SAR_1_IRQ_GetPriority
 123              		.thumb
 124              		.thumb_func
 125              		.type	ADC_SAR_1_IRQ_GetPriority, %function
 126              	ADC_SAR_1_IRQ_GetPriority:
 127              	.LFB7:
 261:Generated_Source\PSoC5/ADC_SAR_1_IRQ.c **** }
 262:Generated_Source\PSoC5/ADC_SAR_1_IRQ.c **** 
 263:Generated_Source\PSoC5/ADC_SAR_1_IRQ.c **** 
 264:Generated_Source\PSoC5/ADC_SAR_1_IRQ.c **** /*******************************************************************************
 265:Generated_Source\PSoC5/ADC_SAR_1_IRQ.c **** * Function Name: ADC_SAR_1_IRQ_GetPriority
 266:Generated_Source\PSoC5/ADC_SAR_1_IRQ.c **** ********************************************************************************
 267:Generated_Source\PSoC5/ADC_SAR_1_IRQ.c **** *
 268:Generated_Source\PSoC5/ADC_SAR_1_IRQ.c **** * Summary:
 269:Generated_Source\PSoC5/ADC_SAR_1_IRQ.c **** *   Gets the Priority of the Interrupt.
 270:Generated_Source\PSoC5/ADC_SAR_1_IRQ.c **** *
 271:Generated_Source\PSoC5/ADC_SAR_1_IRQ.c **** * Parameters:
 272:Generated_Source\PSoC5/ADC_SAR_1_IRQ.c **** *   None
ARM GAS  C:\Users\shiyu\AppData\Local\Temp\cc4twyMF.s 			page 8


 273:Generated_Source\PSoC5/ADC_SAR_1_IRQ.c **** *
 274:Generated_Source\PSoC5/ADC_SAR_1_IRQ.c **** * Return:
 275:Generated_Source\PSoC5/ADC_SAR_1_IRQ.c **** *   Priority of the interrupt, 0 being the highest priority
 276:Generated_Source\PSoC5/ADC_SAR_1_IRQ.c **** *    PSoC 3 and PSoC 5LP: Priority is from 0 to 7.
 277:Generated_Source\PSoC5/ADC_SAR_1_IRQ.c **** *    PSoC 4: Priority is from 0 to 3.
 278:Generated_Source\PSoC5/ADC_SAR_1_IRQ.c **** *
 279:Generated_Source\PSoC5/ADC_SAR_1_IRQ.c **** *******************************************************************************/
 280:Generated_Source\PSoC5/ADC_SAR_1_IRQ.c **** uint8 ADC_SAR_1_IRQ_GetPriority(void)
 281:Generated_Source\PSoC5/ADC_SAR_1_IRQ.c **** {
 128              		.loc 1 281 0
 129              		.cfi_startproc
 130              		@ args = 0, pretend = 0, frame = 0
 131              		@ frame_needed = 0, uses_anonymous_args = 0
 132              		@ link register save eliminated.
 282:Generated_Source\PSoC5/ADC_SAR_1_IRQ.c ****     uint8 priority;
 283:Generated_Source\PSoC5/ADC_SAR_1_IRQ.c **** 
 284:Generated_Source\PSoC5/ADC_SAR_1_IRQ.c **** 
 285:Generated_Source\PSoC5/ADC_SAR_1_IRQ.c ****     priority = *ADC_SAR_1_IRQ_INTC_PRIOR >> 5;
 133              		.loc 1 285 0
 134 0000 014B     		ldr	r3, .L12
 135 0002 1878     		ldrb	r0, [r3]	@ zero_extendqisi2
 136              	.LVL5:
 286:Generated_Source\PSoC5/ADC_SAR_1_IRQ.c **** 
 287:Generated_Source\PSoC5/ADC_SAR_1_IRQ.c ****     return priority;
 288:Generated_Source\PSoC5/ADC_SAR_1_IRQ.c **** }
 137              		.loc 1 288 0
 138 0004 4009     		lsrs	r0, r0, #5
 139              	.LVL6:
 140 0006 7047     		bx	lr
 141              	.L13:
 142              		.align	2
 143              	.L12:
 144 0008 01E400E0 		.word	-536812543
 145              		.cfi_endproc
 146              	.LFE7:
 147              		.size	ADC_SAR_1_IRQ_GetPriority, .-ADC_SAR_1_IRQ_GetPriority
 148              		.section	.text.ADC_SAR_1_IRQ_Enable,"ax",%progbits
 149              		.align	2
 150              		.global	ADC_SAR_1_IRQ_Enable
 151              		.thumb
 152              		.thumb_func
 153              		.type	ADC_SAR_1_IRQ_Enable, %function
 154              	ADC_SAR_1_IRQ_Enable:
 155              	.LFB8:
 289:Generated_Source\PSoC5/ADC_SAR_1_IRQ.c **** 
 290:Generated_Source\PSoC5/ADC_SAR_1_IRQ.c **** 
 291:Generated_Source\PSoC5/ADC_SAR_1_IRQ.c **** /*******************************************************************************
 292:Generated_Source\PSoC5/ADC_SAR_1_IRQ.c **** * Function Name: ADC_SAR_1_IRQ_Enable
 293:Generated_Source\PSoC5/ADC_SAR_1_IRQ.c **** ********************************************************************************
 294:Generated_Source\PSoC5/ADC_SAR_1_IRQ.c **** *
 295:Generated_Source\PSoC5/ADC_SAR_1_IRQ.c **** * Summary:
 296:Generated_Source\PSoC5/ADC_SAR_1_IRQ.c **** *   Enables the interrupt to the interrupt controller. Do not call this function
 297:Generated_Source\PSoC5/ADC_SAR_1_IRQ.c **** *   unless ISR_Start() has been called or the functionality of the ISR_Start() 
 298:Generated_Source\PSoC5/ADC_SAR_1_IRQ.c **** *   function, which sets the vector and the priority, has been called.
 299:Generated_Source\PSoC5/ADC_SAR_1_IRQ.c **** *
 300:Generated_Source\PSoC5/ADC_SAR_1_IRQ.c **** * Parameters:
 301:Generated_Source\PSoC5/ADC_SAR_1_IRQ.c **** *   None
ARM GAS  C:\Users\shiyu\AppData\Local\Temp\cc4twyMF.s 			page 9


 302:Generated_Source\PSoC5/ADC_SAR_1_IRQ.c **** *
 303:Generated_Source\PSoC5/ADC_SAR_1_IRQ.c **** * Return:
 304:Generated_Source\PSoC5/ADC_SAR_1_IRQ.c **** *   None
 305:Generated_Source\PSoC5/ADC_SAR_1_IRQ.c **** *
 306:Generated_Source\PSoC5/ADC_SAR_1_IRQ.c **** *******************************************************************************/
 307:Generated_Source\PSoC5/ADC_SAR_1_IRQ.c **** void ADC_SAR_1_IRQ_Enable(void)
 308:Generated_Source\PSoC5/ADC_SAR_1_IRQ.c **** {
 156              		.loc 1 308 0
 157              		.cfi_startproc
 158              		@ args = 0, pretend = 0, frame = 0
 159              		@ frame_needed = 0, uses_anonymous_args = 0
 160              		@ link register save eliminated.
 309:Generated_Source\PSoC5/ADC_SAR_1_IRQ.c ****     /* Enable the general interrupt. */
 310:Generated_Source\PSoC5/ADC_SAR_1_IRQ.c ****     *ADC_SAR_1_IRQ_INTC_SET_EN = ADC_SAR_1_IRQ__INTC_MASK;
 161              		.loc 1 310 0
 162 0000 0222     		movs	r2, #2
 163 0002 014B     		ldr	r3, .L15
 164 0004 1A60     		str	r2, [r3]
 165 0006 7047     		bx	lr
 166              	.L16:
 167              		.align	2
 168              	.L15:
 169 0008 00E100E0 		.word	-536813312
 170              		.cfi_endproc
 171              	.LFE8:
 172              		.size	ADC_SAR_1_IRQ_Enable, .-ADC_SAR_1_IRQ_Enable
 173              		.section	.text.ADC_SAR_1_IRQ_GetState,"ax",%progbits
 174              		.align	2
 175              		.global	ADC_SAR_1_IRQ_GetState
 176              		.thumb
 177              		.thumb_func
 178              		.type	ADC_SAR_1_IRQ_GetState, %function
 179              	ADC_SAR_1_IRQ_GetState:
 180              	.LFB9:
 311:Generated_Source\PSoC5/ADC_SAR_1_IRQ.c **** }
 312:Generated_Source\PSoC5/ADC_SAR_1_IRQ.c **** 
 313:Generated_Source\PSoC5/ADC_SAR_1_IRQ.c **** 
 314:Generated_Source\PSoC5/ADC_SAR_1_IRQ.c **** /*******************************************************************************
 315:Generated_Source\PSoC5/ADC_SAR_1_IRQ.c **** * Function Name: ADC_SAR_1_IRQ_GetState
 316:Generated_Source\PSoC5/ADC_SAR_1_IRQ.c **** ********************************************************************************
 317:Generated_Source\PSoC5/ADC_SAR_1_IRQ.c **** *
 318:Generated_Source\PSoC5/ADC_SAR_1_IRQ.c **** * Summary:
 319:Generated_Source\PSoC5/ADC_SAR_1_IRQ.c **** *   Gets the state (enabled, disabled) of the Interrupt.
 320:Generated_Source\PSoC5/ADC_SAR_1_IRQ.c **** *
 321:Generated_Source\PSoC5/ADC_SAR_1_IRQ.c **** * Parameters:
 322:Generated_Source\PSoC5/ADC_SAR_1_IRQ.c **** *   None
 323:Generated_Source\PSoC5/ADC_SAR_1_IRQ.c **** *
 324:Generated_Source\PSoC5/ADC_SAR_1_IRQ.c **** * Return:
 325:Generated_Source\PSoC5/ADC_SAR_1_IRQ.c **** *   1 if enabled, 0 if disabled.
 326:Generated_Source\PSoC5/ADC_SAR_1_IRQ.c **** *
 327:Generated_Source\PSoC5/ADC_SAR_1_IRQ.c **** *******************************************************************************/
 328:Generated_Source\PSoC5/ADC_SAR_1_IRQ.c **** uint8 ADC_SAR_1_IRQ_GetState(void)
 329:Generated_Source\PSoC5/ADC_SAR_1_IRQ.c **** {
 181              		.loc 1 329 0
 182              		.cfi_startproc
 183              		@ args = 0, pretend = 0, frame = 0
 184              		@ frame_needed = 0, uses_anonymous_args = 0
ARM GAS  C:\Users\shiyu\AppData\Local\Temp\cc4twyMF.s 			page 10


 185              		@ link register save eliminated.
 330:Generated_Source\PSoC5/ADC_SAR_1_IRQ.c ****     /* Get the state of the general interrupt. */
 331:Generated_Source\PSoC5/ADC_SAR_1_IRQ.c ****     return ((*ADC_SAR_1_IRQ_INTC_SET_EN & (uint32)ADC_SAR_1_IRQ__INTC_MASK) != 0u) ? 1u:0u;
 186              		.loc 1 331 0
 187 0000 044B     		ldr	r3, .L20
 188 0002 1B68     		ldr	r3, [r3]
 189 0004 13F0020F 		tst	r3, #2
 190 0008 01D0     		beq	.L19
 191 000a 0120     		movs	r0, #1
 192 000c 7047     		bx	lr
 193              	.L19:
 194 000e 0020     		movs	r0, #0
 332:Generated_Source\PSoC5/ADC_SAR_1_IRQ.c **** }
 195              		.loc 1 332 0
 196 0010 7047     		bx	lr
 197              	.L21:
 198 0012 00BF     		.align	2
 199              	.L20:
 200 0014 00E100E0 		.word	-536813312
 201              		.cfi_endproc
 202              	.LFE9:
 203              		.size	ADC_SAR_1_IRQ_GetState, .-ADC_SAR_1_IRQ_GetState
 204              		.section	.text.ADC_SAR_1_IRQ_Disable,"ax",%progbits
 205              		.align	2
 206              		.global	ADC_SAR_1_IRQ_Disable
 207              		.thumb
 208              		.thumb_func
 209              		.type	ADC_SAR_1_IRQ_Disable, %function
 210              	ADC_SAR_1_IRQ_Disable:
 211              	.LFB10:
 333:Generated_Source\PSoC5/ADC_SAR_1_IRQ.c **** 
 334:Generated_Source\PSoC5/ADC_SAR_1_IRQ.c **** 
 335:Generated_Source\PSoC5/ADC_SAR_1_IRQ.c **** /*******************************************************************************
 336:Generated_Source\PSoC5/ADC_SAR_1_IRQ.c **** * Function Name: ADC_SAR_1_IRQ_Disable
 337:Generated_Source\PSoC5/ADC_SAR_1_IRQ.c **** ********************************************************************************
 338:Generated_Source\PSoC5/ADC_SAR_1_IRQ.c **** *
 339:Generated_Source\PSoC5/ADC_SAR_1_IRQ.c **** * Summary:
 340:Generated_Source\PSoC5/ADC_SAR_1_IRQ.c **** *   Disables the Interrupt in the interrupt controller.
 341:Generated_Source\PSoC5/ADC_SAR_1_IRQ.c **** *
 342:Generated_Source\PSoC5/ADC_SAR_1_IRQ.c **** * Parameters:
 343:Generated_Source\PSoC5/ADC_SAR_1_IRQ.c **** *   None
 344:Generated_Source\PSoC5/ADC_SAR_1_IRQ.c **** *
 345:Generated_Source\PSoC5/ADC_SAR_1_IRQ.c **** * Return:
 346:Generated_Source\PSoC5/ADC_SAR_1_IRQ.c **** *   None
 347:Generated_Source\PSoC5/ADC_SAR_1_IRQ.c **** *
 348:Generated_Source\PSoC5/ADC_SAR_1_IRQ.c **** *******************************************************************************/
 349:Generated_Source\PSoC5/ADC_SAR_1_IRQ.c **** void ADC_SAR_1_IRQ_Disable(void)
 350:Generated_Source\PSoC5/ADC_SAR_1_IRQ.c **** {
 212              		.loc 1 350 0
 213              		.cfi_startproc
 214              		@ args = 0, pretend = 0, frame = 0
 215              		@ frame_needed = 0, uses_anonymous_args = 0
 216              		@ link register save eliminated.
 351:Generated_Source\PSoC5/ADC_SAR_1_IRQ.c ****     /* Disable the general interrupt. */
 352:Generated_Source\PSoC5/ADC_SAR_1_IRQ.c ****     *ADC_SAR_1_IRQ_INTC_CLR_EN = ADC_SAR_1_IRQ__INTC_MASK;
 217              		.loc 1 352 0
 218 0000 0222     		movs	r2, #2
ARM GAS  C:\Users\shiyu\AppData\Local\Temp\cc4twyMF.s 			page 11


 219 0002 014B     		ldr	r3, .L23
 220 0004 1A60     		str	r2, [r3]
 221 0006 7047     		bx	lr
 222              	.L24:
 223              		.align	2
 224              	.L23:
 225 0008 80E100E0 		.word	-536813184
 226              		.cfi_endproc
 227              	.LFE10:
 228              		.size	ADC_SAR_1_IRQ_Disable, .-ADC_SAR_1_IRQ_Disable
 229              		.section	.text.ADC_SAR_1_IRQ_Start,"ax",%progbits
 230              		.align	2
 231              		.global	ADC_SAR_1_IRQ_Start
 232              		.thumb
 233              		.thumb_func
 234              		.type	ADC_SAR_1_IRQ_Start, %function
 235              	ADC_SAR_1_IRQ_Start:
 236              	.LFB0:
  62:Generated_Source\PSoC5/ADC_SAR_1_IRQ.c ****     /* For all we know the interrupt is active. */
 237              		.loc 1 62 0
 238              		.cfi_startproc
 239              		@ args = 0, pretend = 0, frame = 0
 240              		@ frame_needed = 0, uses_anonymous_args = 0
 241 0000 08B5     		push	{r3, lr}
 242              		.cfi_def_cfa_offset 8
 243              		.cfi_offset 3, -8
 244              		.cfi_offset 14, -4
  64:Generated_Source\PSoC5/ADC_SAR_1_IRQ.c **** 
 245              		.loc 1 64 0
 246 0002 FFF7FEFF 		bl	ADC_SAR_1_IRQ_Disable
 247              	.LVL7:
  67:Generated_Source\PSoC5/ADC_SAR_1_IRQ.c **** 
 248              		.loc 1 67 0
 249 0006 0448     		ldr	r0, .L27
 250 0008 FFF7FEFF 		bl	ADC_SAR_1_IRQ_SetVector
 251              	.LVL8:
  70:Generated_Source\PSoC5/ADC_SAR_1_IRQ.c **** 
 252              		.loc 1 70 0
 253 000c 0720     		movs	r0, #7
 254 000e FFF7FEFF 		bl	ADC_SAR_1_IRQ_SetPriority
 255              	.LVL9:
  73:Generated_Source\PSoC5/ADC_SAR_1_IRQ.c **** }
 256              		.loc 1 73 0
 257 0012 FFF7FEFF 		bl	ADC_SAR_1_IRQ_Enable
 258              	.LVL10:
 259 0016 08BD     		pop	{r3, pc}
 260              	.L28:
 261              		.align	2
 262              	.L27:
 263 0018 00000000 		.word	ADC_SAR_1_IRQ_Interrupt
 264              		.cfi_endproc
 265              	.LFE0:
 266              		.size	ADC_SAR_1_IRQ_Start, .-ADC_SAR_1_IRQ_Start
 267              		.section	.text.ADC_SAR_1_IRQ_StartEx,"ax",%progbits
 268              		.align	2
 269              		.global	ADC_SAR_1_IRQ_StartEx
 270              		.thumb
ARM GAS  C:\Users\shiyu\AppData\Local\Temp\cc4twyMF.s 			page 12


 271              		.thumb_func
 272              		.type	ADC_SAR_1_IRQ_StartEx, %function
 273              	ADC_SAR_1_IRQ_StartEx:
 274              	.LFB1:
 105:Generated_Source\PSoC5/ADC_SAR_1_IRQ.c ****     /* For all we know the interrupt is active. */
 275              		.loc 1 105 0
 276              		.cfi_startproc
 277              		@ args = 0, pretend = 0, frame = 0
 278              		@ frame_needed = 0, uses_anonymous_args = 0
 279              	.LVL11:
 280 0000 10B5     		push	{r4, lr}
 281              		.cfi_def_cfa_offset 8
 282              		.cfi_offset 4, -8
 283              		.cfi_offset 14, -4
 284 0002 0446     		mov	r4, r0
 107:Generated_Source\PSoC5/ADC_SAR_1_IRQ.c **** 
 285              		.loc 1 107 0
 286 0004 FFF7FEFF 		bl	ADC_SAR_1_IRQ_Disable
 287              	.LVL12:
 110:Generated_Source\PSoC5/ADC_SAR_1_IRQ.c **** 
 288              		.loc 1 110 0
 289 0008 2046     		mov	r0, r4
 290 000a FFF7FEFF 		bl	ADC_SAR_1_IRQ_SetVector
 291              	.LVL13:
 113:Generated_Source\PSoC5/ADC_SAR_1_IRQ.c **** 
 292              		.loc 1 113 0
 293 000e 0720     		movs	r0, #7
 294 0010 FFF7FEFF 		bl	ADC_SAR_1_IRQ_SetPriority
 295              	.LVL14:
 116:Generated_Source\PSoC5/ADC_SAR_1_IRQ.c **** }
 296              		.loc 1 116 0
 297 0014 FFF7FEFF 		bl	ADC_SAR_1_IRQ_Enable
 298              	.LVL15:
 299 0018 10BD     		pop	{r4, pc}
 300              		.cfi_endproc
 301              	.LFE1:
 302              		.size	ADC_SAR_1_IRQ_StartEx, .-ADC_SAR_1_IRQ_StartEx
 303 001a 00BF     		.section	.text.ADC_SAR_1_IRQ_Stop,"ax",%progbits
 304              		.align	2
 305              		.global	ADC_SAR_1_IRQ_Stop
 306              		.thumb
 307              		.thumb_func
 308              		.type	ADC_SAR_1_IRQ_Stop, %function
 309              	ADC_SAR_1_IRQ_Stop:
 310              	.LFB2:
 135:Generated_Source\PSoC5/ADC_SAR_1_IRQ.c ****     /* Disable this interrupt. */
 311              		.loc 1 135 0
 312              		.cfi_startproc
 313              		@ args = 0, pretend = 0, frame = 0
 314              		@ frame_needed = 0, uses_anonymous_args = 0
 315 0000 08B5     		push	{r3, lr}
 316              		.cfi_def_cfa_offset 8
 317              		.cfi_offset 3, -8
 318              		.cfi_offset 14, -4
 137:Generated_Source\PSoC5/ADC_SAR_1_IRQ.c **** 
 319              		.loc 1 137 0
 320 0002 FFF7FEFF 		bl	ADC_SAR_1_IRQ_Disable
ARM GAS  C:\Users\shiyu\AppData\Local\Temp\cc4twyMF.s 			page 13


 321              	.LVL16:
 140:Generated_Source\PSoC5/ADC_SAR_1_IRQ.c **** }
 322              		.loc 1 140 0
 323 0006 0248     		ldr	r0, .L33
 324 0008 FFF7FEFF 		bl	ADC_SAR_1_IRQ_SetVector
 325              	.LVL17:
 326 000c 08BD     		pop	{r3, pc}
 327              	.L34:
 328 000e 00BF     		.align	2
 329              	.L33:
 330 0010 00000000 		.word	IntDefaultHandler
 331              		.cfi_endproc
 332              	.LFE2:
 333              		.size	ADC_SAR_1_IRQ_Stop, .-ADC_SAR_1_IRQ_Stop
 334              		.section	.text.ADC_SAR_1_IRQ_SetPending,"ax",%progbits
 335              		.align	2
 336              		.global	ADC_SAR_1_IRQ_SetPending
 337              		.thumb
 338              		.thumb_func
 339              		.type	ADC_SAR_1_IRQ_SetPending, %function
 340              	ADC_SAR_1_IRQ_SetPending:
 341              	.LFB11:
 353:Generated_Source\PSoC5/ADC_SAR_1_IRQ.c **** }
 354:Generated_Source\PSoC5/ADC_SAR_1_IRQ.c **** 
 355:Generated_Source\PSoC5/ADC_SAR_1_IRQ.c **** 
 356:Generated_Source\PSoC5/ADC_SAR_1_IRQ.c **** /*******************************************************************************
 357:Generated_Source\PSoC5/ADC_SAR_1_IRQ.c **** * Function Name: ADC_SAR_1_IRQ_SetPending
 358:Generated_Source\PSoC5/ADC_SAR_1_IRQ.c **** ********************************************************************************
 359:Generated_Source\PSoC5/ADC_SAR_1_IRQ.c **** *
 360:Generated_Source\PSoC5/ADC_SAR_1_IRQ.c **** * Summary:
 361:Generated_Source\PSoC5/ADC_SAR_1_IRQ.c **** *   Causes the Interrupt to enter the pending state, a software method of
 362:Generated_Source\PSoC5/ADC_SAR_1_IRQ.c **** *   generating the interrupt.
 363:Generated_Source\PSoC5/ADC_SAR_1_IRQ.c **** *
 364:Generated_Source\PSoC5/ADC_SAR_1_IRQ.c **** * Parameters:
 365:Generated_Source\PSoC5/ADC_SAR_1_IRQ.c **** *   None
 366:Generated_Source\PSoC5/ADC_SAR_1_IRQ.c **** *
 367:Generated_Source\PSoC5/ADC_SAR_1_IRQ.c **** * Return:
 368:Generated_Source\PSoC5/ADC_SAR_1_IRQ.c **** *   None
 369:Generated_Source\PSoC5/ADC_SAR_1_IRQ.c **** *
 370:Generated_Source\PSoC5/ADC_SAR_1_IRQ.c **** * Side Effects:
 371:Generated_Source\PSoC5/ADC_SAR_1_IRQ.c **** *   If interrupts are enabled and the interrupt is set up properly, the ISR is
 372:Generated_Source\PSoC5/ADC_SAR_1_IRQ.c **** *   entered (depending on the priority of this interrupt and other pending 
 373:Generated_Source\PSoC5/ADC_SAR_1_IRQ.c **** *   interrupts).
 374:Generated_Source\PSoC5/ADC_SAR_1_IRQ.c **** *
 375:Generated_Source\PSoC5/ADC_SAR_1_IRQ.c **** *******************************************************************************/
 376:Generated_Source\PSoC5/ADC_SAR_1_IRQ.c **** void ADC_SAR_1_IRQ_SetPending(void)
 377:Generated_Source\PSoC5/ADC_SAR_1_IRQ.c **** {
 342              		.loc 1 377 0
 343              		.cfi_startproc
 344              		@ args = 0, pretend = 0, frame = 0
 345              		@ frame_needed = 0, uses_anonymous_args = 0
 346              		@ link register save eliminated.
 378:Generated_Source\PSoC5/ADC_SAR_1_IRQ.c ****     *ADC_SAR_1_IRQ_INTC_SET_PD = ADC_SAR_1_IRQ__INTC_MASK;
 347              		.loc 1 378 0
 348 0000 0222     		movs	r2, #2
 349 0002 014B     		ldr	r3, .L36
 350 0004 1A60     		str	r2, [r3]
ARM GAS  C:\Users\shiyu\AppData\Local\Temp\cc4twyMF.s 			page 14


 351 0006 7047     		bx	lr
 352              	.L37:
 353              		.align	2
 354              	.L36:
 355 0008 00E200E0 		.word	-536813056
 356              		.cfi_endproc
 357              	.LFE11:
 358              		.size	ADC_SAR_1_IRQ_SetPending, .-ADC_SAR_1_IRQ_SetPending
 359              		.section	.text.ADC_SAR_1_IRQ_ClearPending,"ax",%progbits
 360              		.align	2
 361              		.global	ADC_SAR_1_IRQ_ClearPending
 362              		.thumb
 363              		.thumb_func
 364              		.type	ADC_SAR_1_IRQ_ClearPending, %function
 365              	ADC_SAR_1_IRQ_ClearPending:
 366              	.LFB12:
 379:Generated_Source\PSoC5/ADC_SAR_1_IRQ.c **** }
 380:Generated_Source\PSoC5/ADC_SAR_1_IRQ.c **** 
 381:Generated_Source\PSoC5/ADC_SAR_1_IRQ.c **** 
 382:Generated_Source\PSoC5/ADC_SAR_1_IRQ.c **** /*******************************************************************************
 383:Generated_Source\PSoC5/ADC_SAR_1_IRQ.c **** * Function Name: ADC_SAR_1_IRQ_ClearPending
 384:Generated_Source\PSoC5/ADC_SAR_1_IRQ.c **** ********************************************************************************
 385:Generated_Source\PSoC5/ADC_SAR_1_IRQ.c **** *
 386:Generated_Source\PSoC5/ADC_SAR_1_IRQ.c **** * Summary:
 387:Generated_Source\PSoC5/ADC_SAR_1_IRQ.c **** *   Clears a pending interrupt in the interrupt controller.
 388:Generated_Source\PSoC5/ADC_SAR_1_IRQ.c **** *
 389:Generated_Source\PSoC5/ADC_SAR_1_IRQ.c **** *   Note Some interrupt sources are clear-on-read and require the block 
 390:Generated_Source\PSoC5/ADC_SAR_1_IRQ.c **** *   interrupt/status register to be read/cleared with the appropriate block API 
 391:Generated_Source\PSoC5/ADC_SAR_1_IRQ.c **** *   (GPIO, UART, and so on). Otherwise the ISR will continue to remain in 
 392:Generated_Source\PSoC5/ADC_SAR_1_IRQ.c **** *   pending state even though the interrupt itself is cleared using this API.
 393:Generated_Source\PSoC5/ADC_SAR_1_IRQ.c **** *
 394:Generated_Source\PSoC5/ADC_SAR_1_IRQ.c **** * Parameters:
 395:Generated_Source\PSoC5/ADC_SAR_1_IRQ.c **** *   None
 396:Generated_Source\PSoC5/ADC_SAR_1_IRQ.c **** *
 397:Generated_Source\PSoC5/ADC_SAR_1_IRQ.c **** * Return:
 398:Generated_Source\PSoC5/ADC_SAR_1_IRQ.c **** *   None
 399:Generated_Source\PSoC5/ADC_SAR_1_IRQ.c **** *
 400:Generated_Source\PSoC5/ADC_SAR_1_IRQ.c **** *******************************************************************************/
 401:Generated_Source\PSoC5/ADC_SAR_1_IRQ.c **** void ADC_SAR_1_IRQ_ClearPending(void)
 402:Generated_Source\PSoC5/ADC_SAR_1_IRQ.c **** {
 367              		.loc 1 402 0
 368              		.cfi_startproc
 369              		@ args = 0, pretend = 0, frame = 0
 370              		@ frame_needed = 0, uses_anonymous_args = 0
 371              		@ link register save eliminated.
 403:Generated_Source\PSoC5/ADC_SAR_1_IRQ.c ****     *ADC_SAR_1_IRQ_INTC_CLR_PD = ADC_SAR_1_IRQ__INTC_MASK;
 372              		.loc 1 403 0
 373 0000 0222     		movs	r2, #2
 374 0002 014B     		ldr	r3, .L39
 375 0004 1A60     		str	r2, [r3]
 376 0006 7047     		bx	lr
 377              	.L40:
 378              		.align	2
 379              	.L39:
 380 0008 80E200E0 		.word	-536812928
 381              		.cfi_endproc
 382              	.LFE12:
ARM GAS  C:\Users\shiyu\AppData\Local\Temp\cc4twyMF.s 			page 15


 383              		.size	ADC_SAR_1_IRQ_ClearPending, .-ADC_SAR_1_IRQ_ClearPending
 384              		.text
 385              	.Letext0:
 386              		.file 2 "Generated_Source\\PSoC5/cytypes.h"