ARM GAS  C:\Users\shiyu\AppData\Local\Temp\ccAVpJNO.s 			page 1


   1              		.syntax unified
   2              		.cpu cortex-m3
   3              		.fpu softvfp
   4              		.eabi_attribute 20, 1
   5              		.eabi_attribute 21, 1
   6              		.eabi_attribute 23, 3
   7              		.eabi_attribute 24, 1
   8              		.eabi_attribute 25, 1
   9              		.eabi_attribute 26, 1
  10              		.eabi_attribute 30, 1
  11              		.eabi_attribute 34, 1
  12              		.eabi_attribute 18, 4
  13              		.thumb
  14              		.syntax unified
  15              		.file	"cyfitter_cfg.c"
  16              		.text
  17              	.Ltext0:
  18              		.cfi_sections	.debug_frame
  19              		.section	.text.CyClockStartupError,"ax",%progbits
  20              		.align	2
  21              		.thumb
  22              		.thumb_func
  23              		.type	CyClockStartupError, %function
  24              	CyClockStartupError:
  25              	.LFB3:
  26              		.file 1 "Generated_Source\\PSoC5\\cyfitter_cfg.c"
   1:Generated_Source\PSoC5/cyfitter_cfg.c **** 
   2:Generated_Source\PSoC5/cyfitter_cfg.c **** /*******************************************************************************
   3:Generated_Source\PSoC5/cyfitter_cfg.c **** * File Name: cyfitter_cfg.c
   4:Generated_Source\PSoC5/cyfitter_cfg.c **** * 
   5:Generated_Source\PSoC5/cyfitter_cfg.c **** * PSoC Creator  4.2
   6:Generated_Source\PSoC5/cyfitter_cfg.c **** *
   7:Generated_Source\PSoC5/cyfitter_cfg.c **** * Description:
   8:Generated_Source\PSoC5/cyfitter_cfg.c **** * This file contains device initialization code.
   9:Generated_Source\PSoC5/cyfitter_cfg.c **** * Except for the user defined sections in CyClockStartupError(), this file should not be modified.
  10:Generated_Source\PSoC5/cyfitter_cfg.c **** * This file is automatically generated by PSoC Creator.
  11:Generated_Source\PSoC5/cyfitter_cfg.c **** *
  12:Generated_Source\PSoC5/cyfitter_cfg.c **** ********************************************************************************
  13:Generated_Source\PSoC5/cyfitter_cfg.c **** * Copyright (c) 2007-2018 Cypress Semiconductor.  All rights reserved.
  14:Generated_Source\PSoC5/cyfitter_cfg.c **** * You may use this file only in accordance with the license, terms, conditions, 
  15:Generated_Source\PSoC5/cyfitter_cfg.c **** * disclaimers, and limitations in the end user license agreement accompanying 
  16:Generated_Source\PSoC5/cyfitter_cfg.c **** * the software package with which this file was provided.
  17:Generated_Source\PSoC5/cyfitter_cfg.c **** ********************************************************************************/
  18:Generated_Source\PSoC5/cyfitter_cfg.c **** 
  19:Generated_Source\PSoC5/cyfitter_cfg.c **** #include <string.h>
  20:Generated_Source\PSoC5/cyfitter_cfg.c **** #include "cytypes.h"
  21:Generated_Source\PSoC5/cyfitter_cfg.c **** #include "cydevice_trm.h"
  22:Generated_Source\PSoC5/cyfitter_cfg.c **** #include "cyfitter.h"
  23:Generated_Source\PSoC5/cyfitter_cfg.c **** #include "CyLib.h"
  24:Generated_Source\PSoC5/cyfitter_cfg.c **** #include "cyfitter_cfg.h"
  25:Generated_Source\PSoC5/cyfitter_cfg.c **** 
  26:Generated_Source\PSoC5/cyfitter_cfg.c **** #define CY_NEED_CYCLOCKSTARTUPERROR 1
  27:Generated_Source\PSoC5/cyfitter_cfg.c **** 
  28:Generated_Source\PSoC5/cyfitter_cfg.c **** 
  29:Generated_Source\PSoC5/cyfitter_cfg.c **** #if defined(__GNUC__) || defined(__ARMCC_VERSION)
  30:Generated_Source\PSoC5/cyfitter_cfg.c ****     #define CYPACKED 
  31:Generated_Source\PSoC5/cyfitter_cfg.c ****     #define CYPACKED_ATTR __attribute__ ((packed))
ARM GAS  C:\Users\shiyu\AppData\Local\Temp\ccAVpJNO.s 			page 2


  32:Generated_Source\PSoC5/cyfitter_cfg.c ****     #define CYALIGNED __attribute__ ((aligned))
  33:Generated_Source\PSoC5/cyfitter_cfg.c ****     #define CY_CFG_UNUSED __attribute__ ((unused))
  34:Generated_Source\PSoC5/cyfitter_cfg.c ****     #ifndef CY_CFG_SECTION
  35:Generated_Source\PSoC5/cyfitter_cfg.c ****         #define CY_CFG_SECTION __attribute__ ((section(".psocinit")))
  36:Generated_Source\PSoC5/cyfitter_cfg.c ****     #endif
  37:Generated_Source\PSoC5/cyfitter_cfg.c ****     
  38:Generated_Source\PSoC5/cyfitter_cfg.c ****     #if defined(__ARMCC_VERSION)
  39:Generated_Source\PSoC5/cyfitter_cfg.c ****         #define CY_CFG_MEMORY_BARRIER() __memory_changed()
  40:Generated_Source\PSoC5/cyfitter_cfg.c ****     #else
  41:Generated_Source\PSoC5/cyfitter_cfg.c ****         #define CY_CFG_MEMORY_BARRIER() __sync_synchronize()
  42:Generated_Source\PSoC5/cyfitter_cfg.c ****     #endif
  43:Generated_Source\PSoC5/cyfitter_cfg.c ****     
  44:Generated_Source\PSoC5/cyfitter_cfg.c **** #elif defined(__ICCARM__)
  45:Generated_Source\PSoC5/cyfitter_cfg.c ****     #include <intrinsics.h>
  46:Generated_Source\PSoC5/cyfitter_cfg.c **** 
  47:Generated_Source\PSoC5/cyfitter_cfg.c ****     #define CYPACKED __packed
  48:Generated_Source\PSoC5/cyfitter_cfg.c ****     #define CYPACKED_ATTR 
  49:Generated_Source\PSoC5/cyfitter_cfg.c ****     #define CYALIGNED _Pragma("data_alignment=4")
  50:Generated_Source\PSoC5/cyfitter_cfg.c ****     #define CY_CFG_UNUSED _Pragma("diag_suppress=Pe177")
  51:Generated_Source\PSoC5/cyfitter_cfg.c ****     #define CY_CFG_SECTION _Pragma("location=\".psocinit\"")
  52:Generated_Source\PSoC5/cyfitter_cfg.c ****     
  53:Generated_Source\PSoC5/cyfitter_cfg.c ****     #define CY_CFG_MEMORY_BARRIER() __DMB()
  54:Generated_Source\PSoC5/cyfitter_cfg.c ****     
  55:Generated_Source\PSoC5/cyfitter_cfg.c **** #else
  56:Generated_Source\PSoC5/cyfitter_cfg.c ****     #error Unsupported toolchain
  57:Generated_Source\PSoC5/cyfitter_cfg.c **** #endif
  58:Generated_Source\PSoC5/cyfitter_cfg.c **** 
  59:Generated_Source\PSoC5/cyfitter_cfg.c **** #ifndef CYCODE
  60:Generated_Source\PSoC5/cyfitter_cfg.c ****     #define CYCODE
  61:Generated_Source\PSoC5/cyfitter_cfg.c **** #endif
  62:Generated_Source\PSoC5/cyfitter_cfg.c **** #ifndef CYDATA
  63:Generated_Source\PSoC5/cyfitter_cfg.c ****     #define CYDATA
  64:Generated_Source\PSoC5/cyfitter_cfg.c **** #endif
  65:Generated_Source\PSoC5/cyfitter_cfg.c **** #ifndef CYFAR
  66:Generated_Source\PSoC5/cyfitter_cfg.c ****     #define CYFAR
  67:Generated_Source\PSoC5/cyfitter_cfg.c **** #endif
  68:Generated_Source\PSoC5/cyfitter_cfg.c **** #ifndef CYXDATA
  69:Generated_Source\PSoC5/cyfitter_cfg.c ****     #define CYXDATA
  70:Generated_Source\PSoC5/cyfitter_cfg.c **** #endif
  71:Generated_Source\PSoC5/cyfitter_cfg.c **** 
  72:Generated_Source\PSoC5/cyfitter_cfg.c **** 
  73:Generated_Source\PSoC5/cyfitter_cfg.c **** CY_CFG_UNUSED
  74:Generated_Source\PSoC5/cyfitter_cfg.c **** static void CYMEMZERO(void *s, size_t n);
  75:Generated_Source\PSoC5/cyfitter_cfg.c **** CY_CFG_UNUSED
  76:Generated_Source\PSoC5/cyfitter_cfg.c **** static void CYMEMZERO(void *s, size_t n)
  77:Generated_Source\PSoC5/cyfitter_cfg.c **** {
  78:Generated_Source\PSoC5/cyfitter_cfg.c **** 	(void)memset(s, 0, n);
  79:Generated_Source\PSoC5/cyfitter_cfg.c **** }
  80:Generated_Source\PSoC5/cyfitter_cfg.c **** CY_CFG_UNUSED
  81:Generated_Source\PSoC5/cyfitter_cfg.c **** static void CYCONFIGCPY(void *dest, const void *src, size_t n);
  82:Generated_Source\PSoC5/cyfitter_cfg.c **** CY_CFG_UNUSED
  83:Generated_Source\PSoC5/cyfitter_cfg.c **** static void CYCONFIGCPY(void *dest, const void *src, size_t n)
  84:Generated_Source\PSoC5/cyfitter_cfg.c **** {
  85:Generated_Source\PSoC5/cyfitter_cfg.c **** 	(void)memcpy(dest, src, n);
  86:Generated_Source\PSoC5/cyfitter_cfg.c **** }
  87:Generated_Source\PSoC5/cyfitter_cfg.c **** CY_CFG_UNUSED
  88:Generated_Source\PSoC5/cyfitter_cfg.c **** static void CYCONFIGCPYCODE(void *dest, const void *src, size_t n);
ARM GAS  C:\Users\shiyu\AppData\Local\Temp\ccAVpJNO.s 			page 3


  89:Generated_Source\PSoC5/cyfitter_cfg.c **** CY_CFG_UNUSED
  90:Generated_Source\PSoC5/cyfitter_cfg.c **** static void CYCONFIGCPYCODE(void *dest, const void *src, size_t n)
  91:Generated_Source\PSoC5/cyfitter_cfg.c **** {
  92:Generated_Source\PSoC5/cyfitter_cfg.c **** 	(void)memcpy(dest, src, n);
  93:Generated_Source\PSoC5/cyfitter_cfg.c **** }
  94:Generated_Source\PSoC5/cyfitter_cfg.c **** 
  95:Generated_Source\PSoC5/cyfitter_cfg.c **** 
  96:Generated_Source\PSoC5/cyfitter_cfg.c **** 
  97:Generated_Source\PSoC5/cyfitter_cfg.c **** 
  98:Generated_Source\PSoC5/cyfitter_cfg.c **** /* Clock startup error codes                                                   */
  99:Generated_Source\PSoC5/cyfitter_cfg.c **** #define CYCLOCKSTART_NO_ERROR    0u
 100:Generated_Source\PSoC5/cyfitter_cfg.c **** #define CYCLOCKSTART_XTAL_ERROR  1u
 101:Generated_Source\PSoC5/cyfitter_cfg.c **** #define CYCLOCKSTART_32KHZ_ERROR 2u
 102:Generated_Source\PSoC5/cyfitter_cfg.c **** #define CYCLOCKSTART_PLL_ERROR   3u
 103:Generated_Source\PSoC5/cyfitter_cfg.c **** #define CYCLOCKSTART_FLL_ERROR   4u
 104:Generated_Source\PSoC5/cyfitter_cfg.c **** #define CYCLOCKSTART_WCO_ERROR   5u
 105:Generated_Source\PSoC5/cyfitter_cfg.c **** 
 106:Generated_Source\PSoC5/cyfitter_cfg.c **** 
 107:Generated_Source\PSoC5/cyfitter_cfg.c **** #ifdef CY_NEED_CYCLOCKSTARTUPERROR
 108:Generated_Source\PSoC5/cyfitter_cfg.c **** /*******************************************************************************
 109:Generated_Source\PSoC5/cyfitter_cfg.c **** * Function Name: CyClockStartupError
 110:Generated_Source\PSoC5/cyfitter_cfg.c **** ********************************************************************************
 111:Generated_Source\PSoC5/cyfitter_cfg.c **** * Summary:
 112:Generated_Source\PSoC5/cyfitter_cfg.c **** *  If an error is encountered during clock configuration (crystal startup error,
 113:Generated_Source\PSoC5/cyfitter_cfg.c **** *  PLL lock error, etc.), the system will end up here.  Unless reimplemented by
 114:Generated_Source\PSoC5/cyfitter_cfg.c **** *  the customer, this function will stop in an infinite loop.
 115:Generated_Source\PSoC5/cyfitter_cfg.c **** *
 116:Generated_Source\PSoC5/cyfitter_cfg.c **** * Parameters:
 117:Generated_Source\PSoC5/cyfitter_cfg.c **** *   void
 118:Generated_Source\PSoC5/cyfitter_cfg.c **** *
 119:Generated_Source\PSoC5/cyfitter_cfg.c **** * Return:
 120:Generated_Source\PSoC5/cyfitter_cfg.c **** *   void
 121:Generated_Source\PSoC5/cyfitter_cfg.c **** *
 122:Generated_Source\PSoC5/cyfitter_cfg.c **** *******************************************************************************/
 123:Generated_Source\PSoC5/cyfitter_cfg.c **** CY_CFG_UNUSED
 124:Generated_Source\PSoC5/cyfitter_cfg.c **** static void CyClockStartupError(uint8 errorCode);
 125:Generated_Source\PSoC5/cyfitter_cfg.c **** CY_CFG_UNUSED
 126:Generated_Source\PSoC5/cyfitter_cfg.c **** static void CyClockStartupError(uint8 errorCode)
 127:Generated_Source\PSoC5/cyfitter_cfg.c **** {
  27              		.loc 1 127 0
  28              		.cfi_startproc
  29              		@ Volatile: function does not return.
  30              		@ args = 0, pretend = 0, frame = 0
  31              		@ frame_needed = 0, uses_anonymous_args = 0
  32              		@ link register save eliminated.
  33              	.LVL0:
  34              	.L2:
  35 0000 FEE7     		b	.L2
  36              		.cfi_endproc
  37              	.LFE3:
  38              		.size	CyClockStartupError, .-CyClockStartupError
  39 0002 00BF     		.section	.text.cfg_write_bytes32,"ax",%progbits
  40              		.align	2
  41              		.thumb
  42              		.thumb_func
  43              		.type	cfg_write_bytes32, %function
  44              	cfg_write_bytes32:
ARM GAS  C:\Users\shiyu\AppData\Local\Temp\ccAVpJNO.s 			page 4


  45              	.LFB4:
 128:Generated_Source\PSoC5/cyfitter_cfg.c ****     /* To remove the compiler warning if errorCode not used.                */
 129:Generated_Source\PSoC5/cyfitter_cfg.c ****     errorCode = errorCode;
 130:Generated_Source\PSoC5/cyfitter_cfg.c **** 
 131:Generated_Source\PSoC5/cyfitter_cfg.c ****     /* If we have a clock startup error (bad MHz crystal, PLL lock, etc.),  */
 132:Generated_Source\PSoC5/cyfitter_cfg.c ****     /* we will end up here to allow the customer to implement something to  */
 133:Generated_Source\PSoC5/cyfitter_cfg.c ****     /* deal with the clock condition.                                       */
 134:Generated_Source\PSoC5/cyfitter_cfg.c **** 
 135:Generated_Source\PSoC5/cyfitter_cfg.c **** #ifdef CY_CFG_CLOCK_STARTUP_ERROR_CALLBACK
 136:Generated_Source\PSoC5/cyfitter_cfg.c ****     CY_CFG_Clock_Startup_ErrorCallback();
 137:Generated_Source\PSoC5/cyfitter_cfg.c **** #else
 138:Generated_Source\PSoC5/cyfitter_cfg.c ****     /*  If not using CY_CFG_CLOCK_STARTUP_ERROR_CALLBACK, place your clock startup code here. */
 139:Generated_Source\PSoC5/cyfitter_cfg.c ****     /* `#START CyClockStartupError` */
 140:Generated_Source\PSoC5/cyfitter_cfg.c **** 
 141:Generated_Source\PSoC5/cyfitter_cfg.c ****     /* If we have a clock startup error (bad MHz crystal, PLL lock, etc.),  */
 142:Generated_Source\PSoC5/cyfitter_cfg.c ****     /* we will end up here to allow the customer to implement something to  */
 143:Generated_Source\PSoC5/cyfitter_cfg.c ****     /* deal with the clock condition.                                       */
 144:Generated_Source\PSoC5/cyfitter_cfg.c **** 
 145:Generated_Source\PSoC5/cyfitter_cfg.c ****     /* `#END` */
 146:Generated_Source\PSoC5/cyfitter_cfg.c **** 
 147:Generated_Source\PSoC5/cyfitter_cfg.c ****     while(1) {}
 148:Generated_Source\PSoC5/cyfitter_cfg.c **** #endif /* CY_CFG_CLOCK_STARTUP_ERROR_CALLBACK */
 149:Generated_Source\PSoC5/cyfitter_cfg.c **** }
 150:Generated_Source\PSoC5/cyfitter_cfg.c **** #endif
 151:Generated_Source\PSoC5/cyfitter_cfg.c **** 
 152:Generated_Source\PSoC5/cyfitter_cfg.c **** #define CY_CFG_BASE_ADDR_COUNT 20u
 153:Generated_Source\PSoC5/cyfitter_cfg.c **** CYPACKED typedef struct
 154:Generated_Source\PSoC5/cyfitter_cfg.c **** {
 155:Generated_Source\PSoC5/cyfitter_cfg.c **** 	uint8 offset;
 156:Generated_Source\PSoC5/cyfitter_cfg.c **** 	uint8 value;
 157:Generated_Source\PSoC5/cyfitter_cfg.c **** } CYPACKED_ATTR cy_cfg_addrvalue_t;
 158:Generated_Source\PSoC5/cyfitter_cfg.c **** 
 159:Generated_Source\PSoC5/cyfitter_cfg.c **** #define cy_cfg_addr_table ((const uint32 CYFAR *)0x48000000u)
 160:Generated_Source\PSoC5/cyfitter_cfg.c **** #define cy_cfg_data_table ((const cy_cfg_addrvalue_t CYFAR *)0x48000050u)
 161:Generated_Source\PSoC5/cyfitter_cfg.c **** 
 162:Generated_Source\PSoC5/cyfitter_cfg.c **** /* IOPORT_7 Address: CYDEV_PRTDSI_PRT12_BASE Size (bytes): 6 */
 163:Generated_Source\PSoC5/cyfitter_cfg.c **** #define BS_IOPORT_7_VAL ((const uint8 CYFAR *)0x480002B8u)
 164:Generated_Source\PSoC5/cyfitter_cfg.c **** 
 165:Generated_Source\PSoC5/cyfitter_cfg.c **** /* UDB_0_1_1_CONFIG Address: CYDEV_UCFG_B1_P4_U0_BASE Size (bytes): 128 */
 166:Generated_Source\PSoC5/cyfitter_cfg.c **** #define BS_UDB_0_1_1_CONFIG_VAL ((const uint8 CYFAR *)0x480002C0u)
 167:Generated_Source\PSoC5/cyfitter_cfg.c **** 
 168:Generated_Source\PSoC5/cyfitter_cfg.c **** /* IOPINS0_0 Address: CYREG_PRT0_DM0 Size (bytes): 8 */
 169:Generated_Source\PSoC5/cyfitter_cfg.c **** #define BS_IOPINS0_0_VAL ((const uint8 CYFAR *)0x48000340u)
 170:Generated_Source\PSoC5/cyfitter_cfg.c **** 
 171:Generated_Source\PSoC5/cyfitter_cfg.c **** /* IOPINS0_7 Address: CYREG_PRT12_DR Size (bytes): 10 */
 172:Generated_Source\PSoC5/cyfitter_cfg.c **** #define BS_IOPINS0_7_VAL ((const uint8 CYFAR *)0x48000348u)
 173:Generated_Source\PSoC5/cyfitter_cfg.c **** 
 174:Generated_Source\PSoC5/cyfitter_cfg.c **** /* IOPINS0_8 Address: CYREG_PRT15_DM0 Size (bytes): 8 */
 175:Generated_Source\PSoC5/cyfitter_cfg.c **** #define BS_IOPINS0_8_VAL ((const uint8 CYFAR *)0x48000354u)
 176:Generated_Source\PSoC5/cyfitter_cfg.c **** 
 177:Generated_Source\PSoC5/cyfitter_cfg.c **** /* IOPINS0_1 Address: CYREG_PRT1_DM0 Size (bytes): 8 */
 178:Generated_Source\PSoC5/cyfitter_cfg.c **** #define BS_IOPINS0_1_VAL ((const uint8 CYFAR *)0x4800035Cu)
 179:Generated_Source\PSoC5/cyfitter_cfg.c **** 
 180:Generated_Source\PSoC5/cyfitter_cfg.c **** /* IOPINS0_2 Address: CYREG_PRT2_DM0 Size (bytes): 8 */
 181:Generated_Source\PSoC5/cyfitter_cfg.c **** #define BS_IOPINS0_2_VAL ((const uint8 CYFAR *)0x48000364u)
 182:Generated_Source\PSoC5/cyfitter_cfg.c **** 
 183:Generated_Source\PSoC5/cyfitter_cfg.c **** /* IOPINS0_3 Address: CYREG_PRT3_DM0 Size (bytes): 8 */
ARM GAS  C:\Users\shiyu\AppData\Local\Temp\ccAVpJNO.s 			page 5


 184:Generated_Source\PSoC5/cyfitter_cfg.c **** #define BS_IOPINS0_3_VAL ((const uint8 CYFAR *)0x4800036Cu)
 185:Generated_Source\PSoC5/cyfitter_cfg.c **** 
 186:Generated_Source\PSoC5/cyfitter_cfg.c **** /* CYDEV_CLKDIST_ACFG0_CFG0 Address: CYREG_CLKDIST_ACFG0_CFG0 Size (bytes): 4 */
 187:Generated_Source\PSoC5/cyfitter_cfg.c **** #define BS_CYDEV_CLKDIST_ACFG0_CFG0_VAL ((const uint8 CYFAR *)0x48000374u)
 188:Generated_Source\PSoC5/cyfitter_cfg.c **** 
 189:Generated_Source\PSoC5/cyfitter_cfg.c **** 
 190:Generated_Source\PSoC5/cyfitter_cfg.c **** /*******************************************************************************
 191:Generated_Source\PSoC5/cyfitter_cfg.c **** * Function Name: cfg_write_bytes32
 192:Generated_Source\PSoC5/cyfitter_cfg.c **** ********************************************************************************
 193:Generated_Source\PSoC5/cyfitter_cfg.c **** * Summary:
 194:Generated_Source\PSoC5/cyfitter_cfg.c **** *  This function is used for setting up the chip configuration areas that
 195:Generated_Source\PSoC5/cyfitter_cfg.c **** *  contain relatively sparse data.
 196:Generated_Source\PSoC5/cyfitter_cfg.c **** *
 197:Generated_Source\PSoC5/cyfitter_cfg.c **** * Parameters:
 198:Generated_Source\PSoC5/cyfitter_cfg.c **** *   void
 199:Generated_Source\PSoC5/cyfitter_cfg.c **** *
 200:Generated_Source\PSoC5/cyfitter_cfg.c **** * Return:
 201:Generated_Source\PSoC5/cyfitter_cfg.c **** *   void
 202:Generated_Source\PSoC5/cyfitter_cfg.c **** *
 203:Generated_Source\PSoC5/cyfitter_cfg.c **** *******************************************************************************/
 204:Generated_Source\PSoC5/cyfitter_cfg.c **** static void cfg_write_bytes32(const uint32 addr_table[], const cy_cfg_addrvalue_t data_table[]);
 205:Generated_Source\PSoC5/cyfitter_cfg.c **** static void cfg_write_bytes32(const uint32 addr_table[], const cy_cfg_addrvalue_t data_table[])
 206:Generated_Source\PSoC5/cyfitter_cfg.c **** {
  46              		.loc 1 206 0
  47              		.cfi_startproc
  48              		@ args = 0, pretend = 0, frame = 0
  49              		@ frame_needed = 0, uses_anonymous_args = 0
  50              		@ link register save eliminated.
  51              	.LVL1:
  52              		.loc 1 206 0
  53 0000 F0B4     		push	{r4, r5, r6, r7}
  54              		.cfi_def_cfa_offset 16
  55              		.cfi_offset 4, -16
  56              		.cfi_offset 5, -12
  57              		.cfi_offset 6, -8
  58              		.cfi_offset 7, -4
  59              	.LVL2:
 207:Generated_Source\PSoC5/cyfitter_cfg.c **** 	/* For 32-bit little-endian architectures */
 208:Generated_Source\PSoC5/cyfitter_cfg.c **** 	uint32 i, j = 0u;
  60              		.loc 1 208 0
  61 0002 0022     		movs	r2, #0
 209:Generated_Source\PSoC5/cyfitter_cfg.c **** 	for (i = 0u; i < CY_CFG_BASE_ADDR_COUNT; i++)
  62              		.loc 1 209 0
  63 0004 1746     		mov	r7, r2
  64 0006 11E0     		b	.L4
  65              	.LVL3:
  66              	.L7:
  67              	.LBB2:
 210:Generated_Source\PSoC5/cyfitter_cfg.c **** 	{
 211:Generated_Source\PSoC5/cyfitter_cfg.c **** 		uint32 baseAddr = addr_table[i];
  68              		.loc 1 211 0
  69 0008 50F82760 		ldr	r6, [r0, r7, lsl #2]
  70              	.LVL4:
 212:Generated_Source\PSoC5/cyfitter_cfg.c **** 		uint8 count = (uint8)baseAddr;
  71              		.loc 1 212 0
  72 000c F3B2     		uxtb	r3, r6
  73              	.LVL5:
ARM GAS  C:\Users\shiyu\AppData\Local\Temp\ccAVpJNO.s 			page 6


 213:Generated_Source\PSoC5/cyfitter_cfg.c **** 		baseAddr &= 0xFFFFFF00u;
  74              		.loc 1 213 0
  75 000e 26F0FF06 		bic	r6, r6, #255
  76              	.LVL6:
 214:Generated_Source\PSoC5/cyfitter_cfg.c **** 		while (count != 0u)
  77              		.loc 1 214 0
  78 0012 08E0     		b	.L5
  79              	.L6:
 215:Generated_Source\PSoC5/cyfitter_cfg.c **** 		{
 216:Generated_Source\PSoC5/cyfitter_cfg.c **** 			CY_SET_REG8((void *)(baseAddr + data_table[j].offset), data_table[j].value);
  80              		.loc 1 216 0
  81 0014 01EB4205 		add	r5, r1, r2, lsl #1
  82 0018 11F81240 		ldrb	r4, [r1, r2, lsl #1]	@ zero_extendqisi2
  83 001c 6D78     		ldrb	r5, [r5, #1]	@ zero_extendqisi2
  84 001e A555     		strb	r5, [r4, r6]
 217:Generated_Source\PSoC5/cyfitter_cfg.c **** 			j++;
  85              		.loc 1 217 0
  86 0020 0132     		adds	r2, r2, #1
  87              	.LVL7:
 218:Generated_Source\PSoC5/cyfitter_cfg.c **** 			count--;
  88              		.loc 1 218 0
  89 0022 013B     		subs	r3, r3, #1
  90              	.LVL8:
  91 0024 DBB2     		uxtb	r3, r3
  92              	.LVL9:
  93              	.L5:
 214:Generated_Source\PSoC5/cyfitter_cfg.c **** 		{
  94              		.loc 1 214 0
  95 0026 002B     		cmp	r3, #0
  96 0028 F4D1     		bne	.L6
  97              	.LBE2:
 209:Generated_Source\PSoC5/cyfitter_cfg.c **** 	{
  98              		.loc 1 209 0 discriminator 2
  99 002a 0137     		adds	r7, r7, #1
 100              	.LVL10:
 101              	.L4:
 209:Generated_Source\PSoC5/cyfitter_cfg.c **** 	{
 102              		.loc 1 209 0 is_stmt 0 discriminator 1
 103 002c 132F     		cmp	r7, #19
 104 002e EBD9     		bls	.L7
 219:Generated_Source\PSoC5/cyfitter_cfg.c **** 		}
 220:Generated_Source\PSoC5/cyfitter_cfg.c **** 	}
 221:Generated_Source\PSoC5/cyfitter_cfg.c **** }
 105              		.loc 1 221 0 is_stmt 1
 106 0030 F0BC     		pop	{r4, r5, r6, r7}
 107              		.cfi_restore 7
 108              		.cfi_restore 6
 109              		.cfi_restore 5
 110              		.cfi_restore 4
 111              		.cfi_def_cfa_offset 0
 112              	.LVL11:
 113 0032 7047     		bx	lr
 114              		.cfi_endproc
 115              	.LFE4:
 116              		.size	cfg_write_bytes32, .-cfg_write_bytes32
 117              		.section	.text.CYMEMZERO,"ax",%progbits
 118              		.align	2
ARM GAS  C:\Users\shiyu\AppData\Local\Temp\ccAVpJNO.s 			page 7


 119              		.thumb
 120              		.thumb_func
 121              		.type	CYMEMZERO, %function
 122              	CYMEMZERO:
 123              	.LFB0:
  77:Generated_Source\PSoC5/cyfitter_cfg.c **** 	(void)memset(s, 0, n);
 124              		.loc 1 77 0
 125              		.cfi_startproc
 126              		@ args = 0, pretend = 0, frame = 0
 127              		@ frame_needed = 0, uses_anonymous_args = 0
 128              	.LVL12:
 129 0000 08B5     		push	{r3, lr}
 130              		.cfi_def_cfa_offset 8
 131              		.cfi_offset 3, -8
 132              		.cfi_offset 14, -4
  78:Generated_Source\PSoC5/cyfitter_cfg.c **** }
 133              		.loc 1 78 0
 134 0002 0A46     		mov	r2, r1
 135 0004 0021     		movs	r1, #0
 136              	.LVL13:
 137 0006 FFF7FEFF 		bl	memset
 138              	.LVL14:
 139 000a 08BD     		pop	{r3, pc}
 140              		.cfi_endproc
 141              	.LFE0:
 142              		.size	CYMEMZERO, .-CYMEMZERO
 143              		.section	.text.AnalogSetDefault,"ax",%progbits
 144              		.align	2
 145              		.thumb
 146              		.thumb_func
 147              		.type	AnalogSetDefault, %function
 148              	AnalogSetDefault:
 149              	.LFB6:
 222:Generated_Source\PSoC5/cyfitter_cfg.c **** 
 223:Generated_Source\PSoC5/cyfitter_cfg.c **** /*******************************************************************************
 224:Generated_Source\PSoC5/cyfitter_cfg.c **** * Function Name: ClockSetup
 225:Generated_Source\PSoC5/cyfitter_cfg.c **** ********************************************************************************
 226:Generated_Source\PSoC5/cyfitter_cfg.c **** *
 227:Generated_Source\PSoC5/cyfitter_cfg.c **** * Summary:
 228:Generated_Source\PSoC5/cyfitter_cfg.c **** *  Performs the initialization of all of the clocks in the device based on the
 229:Generated_Source\PSoC5/cyfitter_cfg.c **** *  settings in the Clock tab of the DWR.  This includes enabling the requested
 230:Generated_Source\PSoC5/cyfitter_cfg.c **** *  clocks and setting the necessary dividers to produce the desired frequency. 
 231:Generated_Source\PSoC5/cyfitter_cfg.c **** *
 232:Generated_Source\PSoC5/cyfitter_cfg.c **** * Parameters:
 233:Generated_Source\PSoC5/cyfitter_cfg.c **** *  void
 234:Generated_Source\PSoC5/cyfitter_cfg.c **** *
 235:Generated_Source\PSoC5/cyfitter_cfg.c **** * Return:
 236:Generated_Source\PSoC5/cyfitter_cfg.c **** *  void
 237:Generated_Source\PSoC5/cyfitter_cfg.c **** *
 238:Generated_Source\PSoC5/cyfitter_cfg.c **** *******************************************************************************/
 239:Generated_Source\PSoC5/cyfitter_cfg.c **** static void ClockSetup(void);
 240:Generated_Source\PSoC5/cyfitter_cfg.c **** static void ClockSetup(void)
 241:Generated_Source\PSoC5/cyfitter_cfg.c **** {
 242:Generated_Source\PSoC5/cyfitter_cfg.c **** 	uint32 timeout;
 243:Generated_Source\PSoC5/cyfitter_cfg.c **** 	uint8 pllLock;
 244:Generated_Source\PSoC5/cyfitter_cfg.c **** 
 245:Generated_Source\PSoC5/cyfitter_cfg.c **** 
ARM GAS  C:\Users\shiyu\AppData\Local\Temp\ccAVpJNO.s 			page 8


 246:Generated_Source\PSoC5/cyfitter_cfg.c **** 	/* Configure Digital Clocks based on settings from Clock DWR */
 247:Generated_Source\PSoC5/cyfitter_cfg.c **** 	CY_SET_XTND_REG16((void CYFAR *)(CYREG_CLKDIST_DCFG0_CFG0), 0x0138u);
 248:Generated_Source\PSoC5/cyfitter_cfg.c **** 	CY_SET_XTND_REG8((void CYFAR *)(CYREG_CLKDIST_DCFG0_CFG0 + 0x2u), 0x18u);
 249:Generated_Source\PSoC5/cyfitter_cfg.c **** 	CY_SET_XTND_REG16((void CYFAR *)(CYREG_CLKDIST_DCFG1_CFG0), 0x0000u);
 250:Generated_Source\PSoC5/cyfitter_cfg.c **** 	CY_SET_XTND_REG8((void CYFAR *)(CYREG_CLKDIST_DCFG1_CFG0 + 0x2u), 0x1Bu);
 251:Generated_Source\PSoC5/cyfitter_cfg.c **** 
 252:Generated_Source\PSoC5/cyfitter_cfg.c **** 	/* Configure Analog Clocks based on settings from Clock DWR */
 253:Generated_Source\PSoC5/cyfitter_cfg.c **** 	CYCONFIGCPY((void CYFAR *)(CYREG_CLKDIST_ACFG0_CFG0), (const void CYFAR *)(BS_CYDEV_CLKDIST_ACFG0_
 254:Generated_Source\PSoC5/cyfitter_cfg.c **** 
 255:Generated_Source\PSoC5/cyfitter_cfg.c **** 	/* Configure ILO based on settings from Clock DWR */
 256:Generated_Source\PSoC5/cyfitter_cfg.c **** 	CY_SET_XTND_REG8((void CYFAR *)(CYREG_SLOWCLK_ILO_CR0), 0x02u);
 257:Generated_Source\PSoC5/cyfitter_cfg.c **** 	CY_SET_XTND_REG8((void CYFAR *)(CYREG_CLKDIST_CR), 0x08u);
 258:Generated_Source\PSoC5/cyfitter_cfg.c **** 
 259:Generated_Source\PSoC5/cyfitter_cfg.c **** 	/* Configure IMO based on settings from Clock DWR */
 260:Generated_Source\PSoC5/cyfitter_cfg.c **** 	CY_SET_XTND_REG8((void CYFAR *)(CYREG_FASTCLK_IMO_CR), 0x03u);
 261:Generated_Source\PSoC5/cyfitter_cfg.c **** 	CY_SET_XTND_REG8((void CYFAR *)(CYREG_IMO_TR1), (CY_GET_XTND_REG8((void CYFAR *)CYREG_FLSHID_CUST_
 262:Generated_Source\PSoC5/cyfitter_cfg.c **** 
 263:Generated_Source\PSoC5/cyfitter_cfg.c **** 	/* Configure PLL based on settings from Clock DWR */
 264:Generated_Source\PSoC5/cyfitter_cfg.c **** 	CY_SET_XTND_REG16((void CYFAR *)(CYREG_FASTCLK_PLL_P), 0x0008u);
 265:Generated_Source\PSoC5/cyfitter_cfg.c **** 	CY_SET_XTND_REG16((void CYFAR *)(CYREG_FASTCLK_PLL_CFG0), 0x1251u);
 266:Generated_Source\PSoC5/cyfitter_cfg.c **** 	/* Wait up to 250us for the PLL to lock */
 267:Generated_Source\PSoC5/cyfitter_cfg.c **** 	pllLock = 0u;
 268:Generated_Source\PSoC5/cyfitter_cfg.c **** 	for (timeout = 250u / 10u; (timeout > 0u) && (pllLock != 0x03u); timeout--)
 269:Generated_Source\PSoC5/cyfitter_cfg.c **** 	{ 
 270:Generated_Source\PSoC5/cyfitter_cfg.c **** 		pllLock = 0x03u & ((uint8)((uint8)pllLock << 1) | ((CY_GET_XTND_REG8((void CYFAR *)CYREG_FASTCLK_
 271:Generated_Source\PSoC5/cyfitter_cfg.c **** 		CyDelayCycles(10u * 48u); /* Delay 10us based on 48MHz clock */
 272:Generated_Source\PSoC5/cyfitter_cfg.c **** 	}
 273:Generated_Source\PSoC5/cyfitter_cfg.c **** 	/* If we ran out of time the PLL didn't lock so go to the error function */
 274:Generated_Source\PSoC5/cyfitter_cfg.c **** 	if (timeout == 0u)
 275:Generated_Source\PSoC5/cyfitter_cfg.c **** 	{
 276:Generated_Source\PSoC5/cyfitter_cfg.c **** 		CyClockStartupError(CYCLOCKSTART_PLL_ERROR);
 277:Generated_Source\PSoC5/cyfitter_cfg.c **** 	}
 278:Generated_Source\PSoC5/cyfitter_cfg.c **** 
 279:Generated_Source\PSoC5/cyfitter_cfg.c **** 	/* Configure Bus/Master Clock based on settings from Clock DWR */
 280:Generated_Source\PSoC5/cyfitter_cfg.c **** 	CY_SET_XTND_REG16((void CYFAR *)(CYREG_CLKDIST_MSTR0), 0x0100u);
 281:Generated_Source\PSoC5/cyfitter_cfg.c **** 	CY_SET_XTND_REG8((void CYFAR *)(CYREG_CLKDIST_MSTR0), 0x07u);
 282:Generated_Source\PSoC5/cyfitter_cfg.c **** 	CY_SET_XTND_REG8((void CYFAR *)(CYREG_CLKDIST_BCFG0), 0x00u);
 283:Generated_Source\PSoC5/cyfitter_cfg.c **** 	CY_SET_XTND_REG8((void CYFAR *)(CYREG_CLKDIST_BCFG2), 0x48u);
 284:Generated_Source\PSoC5/cyfitter_cfg.c **** 	CY_SET_XTND_REG8((void CYFAR *)(CYREG_CLKDIST_MSTR0), 0x00u);
 285:Generated_Source\PSoC5/cyfitter_cfg.c **** 	CY_SET_XTND_REG8((void CYFAR *)(CYREG_CLKDIST_LD), 0x02u);
 286:Generated_Source\PSoC5/cyfitter_cfg.c **** 	CY_SET_XTND_REG8((void CYFAR *)(CYREG_CLKDIST_DLY1), 0x04u);
 287:Generated_Source\PSoC5/cyfitter_cfg.c **** 
 288:Generated_Source\PSoC5/cyfitter_cfg.c **** 	CY_SET_XTND_REG8((void CYFAR *)(CYREG_PM_ACT_CFG2), ((CY_GET_XTND_REG8((void CYFAR *)CYREG_PM_ACT_
 289:Generated_Source\PSoC5/cyfitter_cfg.c **** 	CY_SET_XTND_REG8((void CYFAR *)(CYREG_PM_ACT_CFG1), ((CY_GET_XTND_REG8((void CYFAR *)CYREG_PM_ACT_
 290:Generated_Source\PSoC5/cyfitter_cfg.c **** 	CY_SET_XTND_REG8((void CYFAR *)(CYREG_PM_ACT_CFG0), ((CY_GET_XTND_REG8((void CYFAR *)CYREG_PM_ACT_
 291:Generated_Source\PSoC5/cyfitter_cfg.c **** }
 292:Generated_Source\PSoC5/cyfitter_cfg.c **** 
 293:Generated_Source\PSoC5/cyfitter_cfg.c **** 
 294:Generated_Source\PSoC5/cyfitter_cfg.c **** /* Analog API Functions */
 295:Generated_Source\PSoC5/cyfitter_cfg.c **** 
 296:Generated_Source\PSoC5/cyfitter_cfg.c **** 
 297:Generated_Source\PSoC5/cyfitter_cfg.c **** /*******************************************************************************
 298:Generated_Source\PSoC5/cyfitter_cfg.c **** * Function Name: AnalogSetDefault
 299:Generated_Source\PSoC5/cyfitter_cfg.c **** ********************************************************************************
 300:Generated_Source\PSoC5/cyfitter_cfg.c **** *
 301:Generated_Source\PSoC5/cyfitter_cfg.c **** * Summary:
 302:Generated_Source\PSoC5/cyfitter_cfg.c **** *  Sets up the analog portions of the chip to default values based on chip
ARM GAS  C:\Users\shiyu\AppData\Local\Temp\ccAVpJNO.s 			page 9


 303:Generated_Source\PSoC5/cyfitter_cfg.c **** *  configuration options from the project.
 304:Generated_Source\PSoC5/cyfitter_cfg.c **** *
 305:Generated_Source\PSoC5/cyfitter_cfg.c **** * Parameters:
 306:Generated_Source\PSoC5/cyfitter_cfg.c **** *  void
 307:Generated_Source\PSoC5/cyfitter_cfg.c **** *
 308:Generated_Source\PSoC5/cyfitter_cfg.c **** * Return:
 309:Generated_Source\PSoC5/cyfitter_cfg.c **** *  void
 310:Generated_Source\PSoC5/cyfitter_cfg.c **** *
 311:Generated_Source\PSoC5/cyfitter_cfg.c **** *******************************************************************************/
 312:Generated_Source\PSoC5/cyfitter_cfg.c **** static void AnalogSetDefault(void);
 313:Generated_Source\PSoC5/cyfitter_cfg.c **** static void AnalogSetDefault(void)
 314:Generated_Source\PSoC5/cyfitter_cfg.c **** {
 150              		.loc 1 314 0
 151              		.cfi_startproc
 152              		@ args = 0, pretend = 0, frame = 0
 153              		@ frame_needed = 0, uses_anonymous_args = 0
 154 0000 F8B5     		push	{r3, r4, r5, r6, r7, lr}
 155              		.cfi_def_cfa_offset 24
 156              		.cfi_offset 3, -24
 157              		.cfi_offset 4, -20
 158              		.cfi_offset 5, -16
 159              		.cfi_offset 6, -12
 160              		.cfi_offset 7, -8
 161              		.cfi_offset 14, -4
 315:Generated_Source\PSoC5/cyfitter_cfg.c **** 	uint8 bg_xover_inl_trim = CY_GET_XTND_REG8((void CYFAR *)(CYREG_FLSHID_MFG_CFG_BG_XOVER_INL_TRIM +
 162              		.loc 1 315 0
 163 0002 194B     		ldr	r3, .L13
 164 0004 1B78     		ldrb	r3, [r3]	@ zero_extendqisi2
 165 0006 DBB2     		uxtb	r3, r3
 166              	.LVL15:
 316:Generated_Source\PSoC5/cyfitter_cfg.c **** 	uint8 cr4 = CY_GET_XTND_REG8((void CYFAR *)(CYREG_RESET_CR4));
 167              		.loc 1 316 0
 168 0008 184E     		ldr	r6, .L13+4
 169 000a 3478     		ldrb	r4, [r6]	@ zero_extendqisi2
 170 000c E4B2     		uxtb	r4, r4
 171              	.LVL16:
 317:Generated_Source\PSoC5/cyfitter_cfg.c **** 	uint8 cr5 = CY_GET_XTND_REG8((void CYFAR *)(CYREG_RESET_CR5));
 172              		.loc 1 317 0
 173 000e 184F     		ldr	r7, .L13+8
 174 0010 3D78     		ldrb	r5, [r7]	@ zero_extendqisi2
 175 0012 EDB2     		uxtb	r5, r5
 176              	.LVL17:
 318:Generated_Source\PSoC5/cyfitter_cfg.c **** 	CY_SET_XTND_REG8((void CYFAR *)(CYREG_BG_DFT0), (bg_xover_inl_trim & 0x07u));
 177              		.loc 1 318 0
 178 0014 03F00701 		and	r1, r3, #7
 179 0018 164A     		ldr	r2, .L13+12
 180 001a 1170     		strb	r1, [r2]
 319:Generated_Source\PSoC5/cyfitter_cfg.c **** 	CY_SET_XTND_REG8((void CYFAR *)(CYREG_BG_DFT1), ((bg_xover_inl_trim >> 4) & 0x0Fu));
 181              		.loc 1 319 0
 182 001c 1B09     		lsrs	r3, r3, #4
 183              	.LVL18:
 184 001e 0132     		adds	r2, r2, #1
 185 0020 1370     		strb	r3, [r2]
 320:Generated_Source\PSoC5/cyfitter_cfg.c **** 	/* Disable PRES while setting up SAR voltage reference */
 321:Generated_Source\PSoC5/cyfitter_cfg.c **** 	CY_SET_XTND_REG8((void CYFAR *)(CYREG_RESET_CR4), (cr4 | 0x03u));
 186              		.loc 1 321 0
 187 0022 44F00303 		orr	r3, r4, #3
ARM GAS  C:\Users\shiyu\AppData\Local\Temp\ccAVpJNO.s 			page 10


 188 0026 3370     		strb	r3, [r6]
 322:Generated_Source\PSoC5/cyfitter_cfg.c **** 	CY_SET_XTND_REG8((void CYFAR *)(CYREG_RESET_CR5), (cr5 | 0x03u));
 189              		.loc 1 322 0
 190 0028 45F00303 		orr	r3, r5, #3
 191 002c 3B70     		strb	r3, [r7]
 323:Generated_Source\PSoC5/cyfitter_cfg.c **** 	CY_SET_XTND_REG8((void CYFAR *)CYREG_SAR1_CSR1, 0x40u);
 192              		.loc 1 323 0
 193 002e 4023     		movs	r3, #64
 194 0030 9A32     		adds	r2, r2, #154
 195 0032 1370     		strb	r3, [r2]
 324:Generated_Source\PSoC5/cyfitter_cfg.c **** 	CY_SET_XTND_REG8((void CYFAR *)CYREG_SAR1_CSR3, 0x40u);
 196              		.loc 1 324 0
 197 0034 0232     		adds	r2, r2, #2
 198 0036 1370     		strb	r3, [r2]
 325:Generated_Source\PSoC5/cyfitter_cfg.c **** 	CY_SET_XTND_REG8((void CYFAR *)CYREG_DAC0_SW0, 0x03u);
 199              		.loc 1 325 0
 200 0038 0322     		movs	r2, #3
 201 003a 0F4B     		ldr	r3, .L13+16
 202 003c 1A70     		strb	r2, [r3]
 326:Generated_Source\PSoC5/cyfitter_cfg.c **** 	CY_SET_XTND_REG8((void CYFAR *)CYREG_DAC0_SW3, 0x01u);
 203              		.loc 1 326 0
 204 003e 0122     		movs	r2, #1
 205 0040 0333     		adds	r3, r3, #3
 206 0042 1A70     		strb	r2, [r3]
 327:Generated_Source\PSoC5/cyfitter_cfg.c **** 	CY_SET_XTND_REG8((void CYFAR *)CYREG_SAR1_SW0, 0xF6u);
 207              		.loc 1 327 0
 208 0044 F622     		movs	r2, #246
 209 0046 A533     		adds	r3, r3, #165
 210 0048 1A70     		strb	r2, [r3]
 328:Generated_Source\PSoC5/cyfitter_cfg.c **** 	CY_SET_XTND_REG8((void CYFAR *)CYREG_SAR1_SW3, 0x20u);
 211              		.loc 1 328 0
 212 004a 2022     		movs	r2, #32
 213 004c 0333     		adds	r3, r3, #3
 214 004e 1A70     		strb	r2, [r3]
 329:Generated_Source\PSoC5/cyfitter_cfg.c **** 	CY_SET_XTND_REG8((void CYFAR *)CYREG_BUS_SW0, 0x02u);
 215              		.loc 1 329 0
 216 0050 0222     		movs	r2, #2
 217 0052 2D33     		adds	r3, r3, #45
 218 0054 1A70     		strb	r2, [r3]
 330:Generated_Source\PSoC5/cyfitter_cfg.c **** 	CyDelayUs(10u); /* Allow vref to settle before re-enabling PRES */
 219              		.loc 1 330 0
 220 0056 0A20     		movs	r0, #10
 221 0058 FFF7FEFF 		bl	CyDelayUs
 222              	.LVL19:
 331:Generated_Source\PSoC5/cyfitter_cfg.c **** 	CY_SET_XTND_REG8((void CYFAR *)(CYREG_RESET_CR5), (cr5));
 223              		.loc 1 331 0
 224 005c 3D70     		strb	r5, [r7]
 332:Generated_Source\PSoC5/cyfitter_cfg.c **** 	CY_SET_XTND_REG8((void CYFAR *)(CYREG_RESET_CR4), (cr4));
 225              		.loc 1 332 0
 226 005e 3470     		strb	r4, [r6]
 333:Generated_Source\PSoC5/cyfitter_cfg.c **** 	CY_SET_XTND_REG8((void CYFAR *)CYREG_PUMP_CR0, 0x44u);
 227              		.loc 1 333 0
 228 0060 4422     		movs	r2, #68
 229 0062 064B     		ldr	r3, .L13+20
 230 0064 1A70     		strb	r2, [r3]
 231 0066 F8BD     		pop	{r3, r4, r5, r6, r7, pc}
 232              	.LVL20:
ARM GAS  C:\Users\shiyu\AppData\Local\Temp\ccAVpJNO.s 			page 11


 233              	.L14:
 234              		.align	2
 235              	.L13:
 236 0068 CF010049 		.word	1224737231
 237 006c F8460040 		.word	1073759992
 238 0070 F9460040 		.word	1073759993
 239 0074 6E580040 		.word	1073764462
 240 0078 805A0040 		.word	1073764992
 241 007c 76580040 		.word	1073764470
 242              		.cfi_endproc
 243              	.LFE6:
 244              		.size	AnalogSetDefault, .-AnalogSetDefault
 245              		.section	.text.CYCONFIGCPY,"ax",%progbits
 246              		.align	2
 247              		.thumb
 248              		.thumb_func
 249              		.type	CYCONFIGCPY, %function
 250              	CYCONFIGCPY:
 251              	.LFB1:
  84:Generated_Source\PSoC5/cyfitter_cfg.c **** 	(void)memcpy(dest, src, n);
 252              		.loc 1 84 0
 253              		.cfi_startproc
 254              		@ args = 0, pretend = 0, frame = 0
 255              		@ frame_needed = 0, uses_anonymous_args = 0
 256              	.LVL21:
 257 0000 08B5     		push	{r3, lr}
 258              		.cfi_def_cfa_offset 8
 259              		.cfi_offset 3, -8
 260              		.cfi_offset 14, -4
  85:Generated_Source\PSoC5/cyfitter_cfg.c **** }
 261              		.loc 1 85 0
 262 0002 FFF7FEFF 		bl	memcpy
 263              	.LVL22:
 264 0006 08BD     		pop	{r3, pc}
 265              		.cfi_endproc
 266              	.LFE1:
 267              		.size	CYCONFIGCPY, .-CYCONFIGCPY
 268              		.section	.text.ClockSetup,"ax",%progbits
 269              		.align	2
 270              		.thumb
 271              		.thumb_func
 272              		.type	ClockSetup, %function
 273              	ClockSetup:
 274              	.LFB5:
 241:Generated_Source\PSoC5/cyfitter_cfg.c **** 	uint32 timeout;
 275              		.loc 1 241 0
 276              		.cfi_startproc
 277              		@ args = 0, pretend = 0, frame = 0
 278              		@ frame_needed = 0, uses_anonymous_args = 0
 279 0000 38B5     		push	{r3, r4, r5, lr}
 280              		.cfi_def_cfa_offset 16
 281              		.cfi_offset 3, -16
 282              		.cfi_offset 4, -12
 283              		.cfi_offset 5, -8
 284              		.cfi_offset 14, -4
 247:Generated_Source\PSoC5/cyfitter_cfg.c **** 	CY_SET_XTND_REG8((void CYFAR *)(CYREG_CLKDIST_DCFG0_CFG0 + 0x2u), 0x18u);
 285              		.loc 1 247 0
ARM GAS  C:\Users\shiyu\AppData\Local\Temp\ccAVpJNO.s 			page 12


 286 0002 4FF49C72 		mov	r2, #312
 287 0006 2F4B     		ldr	r3, .L23
 288 0008 1A80     		strh	r2, [r3]	@ movhi
 248:Generated_Source\PSoC5/cyfitter_cfg.c **** 	CY_SET_XTND_REG16((void CYFAR *)(CYREG_CLKDIST_DCFG1_CFG0), 0x0000u);
 289              		.loc 1 248 0
 290 000a 1822     		movs	r2, #24
 291 000c 0233     		adds	r3, r3, #2
 292 000e 1A70     		strb	r2, [r3]
 249:Generated_Source\PSoC5/cyfitter_cfg.c **** 	CY_SET_XTND_REG8((void CYFAR *)(CYREG_CLKDIST_DCFG1_CFG0 + 0x2u), 0x1Bu);
 293              		.loc 1 249 0
 294 0010 0024     		movs	r4, #0
 295 0012 0233     		adds	r3, r3, #2
 296 0014 1C80     		strh	r4, [r3]	@ movhi
 250:Generated_Source\PSoC5/cyfitter_cfg.c **** 
 297              		.loc 1 250 0
 298 0016 1B22     		movs	r2, #27
 299 0018 0233     		adds	r3, r3, #2
 300 001a 1A70     		strb	r2, [r3]
 253:Generated_Source\PSoC5/cyfitter_cfg.c **** 
 301              		.loc 1 253 0
 302 001c 0422     		movs	r2, #4
 303 001e 2A49     		ldr	r1, .L23+4
 304 0020 2A48     		ldr	r0, .L23+8
 305 0022 FFF7FEFF 		bl	CYCONFIGCPY
 306              	.LVL23:
 256:Generated_Source\PSoC5/cyfitter_cfg.c **** 	CY_SET_XTND_REG8((void CYFAR *)(CYREG_CLKDIST_CR), 0x08u);
 307              		.loc 1 256 0
 308 0026 0222     		movs	r2, #2
 309 0028 294B     		ldr	r3, .L23+12
 310 002a 1A70     		strb	r2, [r3]
 257:Generated_Source\PSoC5/cyfitter_cfg.c **** 
 311              		.loc 1 257 0
 312 002c 0822     		movs	r2, #8
 313 002e 4FF04023 		mov	r3, #1073758208
 314 0032 1A70     		strb	r2, [r3]
 260:Generated_Source\PSoC5/cyfitter_cfg.c **** 	CY_SET_XTND_REG8((void CYFAR *)(CYREG_IMO_TR1), (CY_GET_XTND_REG8((void CYFAR *)CYREG_FLSHID_CUST_
 315              		.loc 1 260 0
 316 0034 0321     		movs	r1, #3
 317 0036 03F50073 		add	r3, r3, #512
 318 003a 1970     		strb	r1, [r3]
 261:Generated_Source\PSoC5/cyfitter_cfg.c **** 
 319              		.loc 1 261 0
 320 003c 254B     		ldr	r3, .L23+16
 321 003e 1B78     		ldrb	r3, [r3]	@ zero_extendqisi2
 322 0040 DBB2     		uxtb	r3, r3
 323 0042 2549     		ldr	r1, .L23+20
 324 0044 0B70     		strb	r3, [r1]
 264:Generated_Source\PSoC5/cyfitter_cfg.c **** 	CY_SET_XTND_REG16((void CYFAR *)(CYREG_FASTCLK_PLL_CFG0), 0x1251u);
 325              		.loc 1 264 0
 326 0046 254B     		ldr	r3, .L23+24
 327 0048 1A80     		strh	r2, [r3]	@ movhi
 265:Generated_Source\PSoC5/cyfitter_cfg.c **** 	/* Wait up to 250us for the PLL to lock */
 328              		.loc 1 265 0
 329 004a 41F25122 		movw	r2, #4689
 330 004e 023B     		subs	r3, r3, #2
 331 0050 1A80     		strh	r2, [r3]	@ movhi
 332              	.LVL24:
ARM GAS  C:\Users\shiyu\AppData\Local\Temp\ccAVpJNO.s 			page 13


 268:Generated_Source\PSoC5/cyfitter_cfg.c **** 	{ 
 333              		.loc 1 268 0
 334 0052 1925     		movs	r5, #25
 335 0054 0CE0     		b	.L18
 336              	.LVL25:
 337              	.L20:
 270:Generated_Source\PSoC5/cyfitter_cfg.c **** 		CyDelayCycles(10u * 48u); /* Delay 10us based on 48MHz clock */
 338              		.loc 1 270 0 discriminator 4
 339 0056 224B     		ldr	r3, .L23+28
 340 0058 1B78     		ldrb	r3, [r3]	@ zero_extendqisi2
 341 005a 03F00103 		and	r3, r3, #1
 342 005e 43EA4404 		orr	r4, r3, r4, lsl #1
 343              	.LVL26:
 344 0062 04F00304 		and	r4, r4, #3
 345              	.LVL27:
 271:Generated_Source\PSoC5/cyfitter_cfg.c **** 	}
 346              		.loc 1 271 0 discriminator 4
 347 0066 4FF4F070 		mov	r0, #480
 348 006a FFF7FEFF 		bl	CyDelayCycles
 349              	.LVL28:
 268:Generated_Source\PSoC5/cyfitter_cfg.c **** 	{ 
 350              		.loc 1 268 0 discriminator 4
 351 006e 013D     		subs	r5, r5, #1
 352              	.LVL29:
 353              	.L18:
 268:Generated_Source\PSoC5/cyfitter_cfg.c **** 	{ 
 354              		.loc 1 268 0 is_stmt 0 discriminator 1
 355 0070 0DB1     		cbz	r5, .L19
 268:Generated_Source\PSoC5/cyfitter_cfg.c **** 	{ 
 356              		.loc 1 268 0 discriminator 3
 357 0072 032C     		cmp	r4, #3
 358 0074 EFD1     		bne	.L20
 359              	.L19:
 274:Generated_Source\PSoC5/cyfitter_cfg.c **** 	{
 360              		.loc 1 274 0 is_stmt 1
 361 0076 15B9     		cbnz	r5, .L21
 276:Generated_Source\PSoC5/cyfitter_cfg.c **** 	}
 362              		.loc 1 276 0
 363 0078 0320     		movs	r0, #3
 364 007a FFF7FEFF 		bl	CyClockStartupError
 365              	.LVL30:
 366              	.L21:
 280:Generated_Source\PSoC5/cyfitter_cfg.c **** 	CY_SET_XTND_REG8((void CYFAR *)(CYREG_CLKDIST_MSTR0), 0x07u);
 367              		.loc 1 280 0
 368 007e 194B     		ldr	r3, .L23+32
 369 0080 4FF48072 		mov	r2, #256
 370 0084 1A80     		strh	r2, [r3]	@ movhi
 281:Generated_Source\PSoC5/cyfitter_cfg.c **** 	CY_SET_XTND_REG8((void CYFAR *)(CYREG_CLKDIST_BCFG0), 0x00u);
 371              		.loc 1 281 0
 372 0086 0722     		movs	r2, #7
 373 0088 1A70     		strb	r2, [r3]
 282:Generated_Source\PSoC5/cyfitter_cfg.c **** 	CY_SET_XTND_REG8((void CYFAR *)(CYREG_CLKDIST_BCFG2), 0x48u);
 374              		.loc 1 282 0
 375 008a 0022     		movs	r2, #0
 376 008c 1649     		ldr	r1, .L23+36
 377 008e 0A70     		strb	r2, [r1]
 283:Generated_Source\PSoC5/cyfitter_cfg.c **** 	CY_SET_XTND_REG8((void CYFAR *)(CYREG_CLKDIST_MSTR0), 0x00u);
ARM GAS  C:\Users\shiyu\AppData\Local\Temp\ccAVpJNO.s 			page 14


 378              		.loc 1 283 0
 379 0090 4820     		movs	r0, #72
 380 0092 0231     		adds	r1, r1, #2
 381 0094 0870     		strb	r0, [r1]
 284:Generated_Source\PSoC5/cyfitter_cfg.c **** 	CY_SET_XTND_REG8((void CYFAR *)(CYREG_CLKDIST_LD), 0x02u);
 382              		.loc 1 284 0
 383 0096 1A70     		strb	r2, [r3]
 285:Generated_Source\PSoC5/cyfitter_cfg.c **** 	CY_SET_XTND_REG8((void CYFAR *)(CYREG_CLKDIST_DLY1), 0x04u);
 384              		.loc 1 285 0
 385 0098 0222     		movs	r2, #2
 386 009a 033B     		subs	r3, r3, #3
 387 009c 1A70     		strb	r2, [r3]
 286:Generated_Source\PSoC5/cyfitter_cfg.c **** 
 388              		.loc 1 286 0
 389 009e 0422     		movs	r2, #4
 390 00a0 0A33     		adds	r3, r3, #10
 391 00a2 1A70     		strb	r2, [r3]
 288:Generated_Source\PSoC5/cyfitter_cfg.c **** 	CY_SET_XTND_REG8((void CYFAR *)(CYREG_PM_ACT_CFG1), ((CY_GET_XTND_REG8((void CYFAR *)CYREG_PM_ACT_
 392              		.loc 1 288 0
 393 00a4 114A     		ldr	r2, .L23+40
 394 00a6 1378     		ldrb	r3, [r2]	@ zero_extendqisi2
 395 00a8 43F00303 		orr	r3, r3, #3
 396 00ac 1370     		strb	r3, [r2]
 289:Generated_Source\PSoC5/cyfitter_cfg.c **** 	CY_SET_XTND_REG8((void CYFAR *)(CYREG_PM_ACT_CFG0), ((CY_GET_XTND_REG8((void CYFAR *)CYREG_PM_ACT_
 397              		.loc 1 289 0
 398 00ae 013A     		subs	r2, r2, #1
 399 00b0 1378     		ldrb	r3, [r2]	@ zero_extendqisi2
 400 00b2 43F00103 		orr	r3, r3, #1
 401 00b6 1370     		strb	r3, [r2]
 290:Generated_Source\PSoC5/cyfitter_cfg.c **** }
 402              		.loc 1 290 0
 403 00b8 013A     		subs	r2, r2, #1
 404 00ba 1378     		ldrb	r3, [r2]	@ zero_extendqisi2
 405 00bc 43F08003 		orr	r3, r3, #128
 406 00c0 1370     		strb	r3, [r2]
 407 00c2 38BD     		pop	{r3, r4, r5, pc}
 408              	.LVL31:
 409              	.L24:
 410              		.align	2
 411              	.L23:
 412 00c4 80400040 		.word	1073758336
 413 00c8 74030048 		.word	1207960436
 414 00cc 00410040 		.word	1073758464
 415 00d0 00430040 		.word	1073758976
 416 00d4 08010049 		.word	1224737032
 417 00d8 A1460040 		.word	1073759905
 418 00dc 22420040 		.word	1073758754
 419 00e0 25420040 		.word	1073758757
 420 00e4 04400040 		.word	1073758212
 421 00e8 06400040 		.word	1073758214
 422 00ec A2430040 		.word	1073759138
 423              		.cfi_endproc
 424              	.LFE5:
 425              		.size	ClockSetup, .-ClockSetup
 426              		.section	.text.SetAnalogRoutingPumps,"ax",%progbits
 427              		.align	2
 428              		.global	SetAnalogRoutingPumps
ARM GAS  C:\Users\shiyu\AppData\Local\Temp\ccAVpJNO.s 			page 15


 429              		.thumb
 430              		.thumb_func
 431              		.type	SetAnalogRoutingPumps, %function
 432              	SetAnalogRoutingPumps:
 433              	.LFB7:
 334:Generated_Source\PSoC5/cyfitter_cfg.c **** }
 335:Generated_Source\PSoC5/cyfitter_cfg.c **** 
 336:Generated_Source\PSoC5/cyfitter_cfg.c **** 
 337:Generated_Source\PSoC5/cyfitter_cfg.c **** /*******************************************************************************
 338:Generated_Source\PSoC5/cyfitter_cfg.c **** * Function Name: SetAnalogRoutingPumps
 339:Generated_Source\PSoC5/cyfitter_cfg.c **** ********************************************************************************
 340:Generated_Source\PSoC5/cyfitter_cfg.c **** *
 341:Generated_Source\PSoC5/cyfitter_cfg.c **** * Summary:
 342:Generated_Source\PSoC5/cyfitter_cfg.c **** * Enables or disables the analog pumps feeding analog routing switches.
 343:Generated_Source\PSoC5/cyfitter_cfg.c **** * Intended to be called at startup, based on the Vdda system configuration;
 344:Generated_Source\PSoC5/cyfitter_cfg.c **** * may be called during operation when the user informs us that the Vdda voltage
 345:Generated_Source\PSoC5/cyfitter_cfg.c **** * crossed the pump threshold.
 346:Generated_Source\PSoC5/cyfitter_cfg.c **** *
 347:Generated_Source\PSoC5/cyfitter_cfg.c **** * Parameters:
 348:Generated_Source\PSoC5/cyfitter_cfg.c **** *  enabled - 1 to enable the pumps, 0 to disable the pumps
 349:Generated_Source\PSoC5/cyfitter_cfg.c **** *
 350:Generated_Source\PSoC5/cyfitter_cfg.c **** * Return:
 351:Generated_Source\PSoC5/cyfitter_cfg.c **** *  void
 352:Generated_Source\PSoC5/cyfitter_cfg.c **** *
 353:Generated_Source\PSoC5/cyfitter_cfg.c **** *******************************************************************************/
 354:Generated_Source\PSoC5/cyfitter_cfg.c **** void SetAnalogRoutingPumps(uint8 enabled)
 355:Generated_Source\PSoC5/cyfitter_cfg.c **** {
 434              		.loc 1 355 0
 435              		.cfi_startproc
 436              		@ args = 0, pretend = 0, frame = 0
 437              		@ frame_needed = 0, uses_anonymous_args = 0
 438              		@ link register save eliminated.
 439              	.LVL32:
 356:Generated_Source\PSoC5/cyfitter_cfg.c **** 	uint8 regValue = CY_GET_XTND_REG8((void CYFAR *)CYREG_PUMP_CR0);
 440              		.loc 1 356 0
 441 0000 054B     		ldr	r3, .L28
 442 0002 1B78     		ldrb	r3, [r3]	@ zero_extendqisi2
 443 0004 DBB2     		uxtb	r3, r3
 444              	.LVL33:
 357:Generated_Source\PSoC5/cyfitter_cfg.c **** 	if (enabled != 0u)
 445              		.loc 1 357 0
 446 0006 10B1     		cbz	r0, .L26
 358:Generated_Source\PSoC5/cyfitter_cfg.c **** 	{
 359:Generated_Source\PSoC5/cyfitter_cfg.c **** 		regValue |= 0x22u;
 447              		.loc 1 359 0
 448 0008 43F02203 		orr	r3, r3, #34
 449              	.LVL34:
 450 000c 01E0     		b	.L27
 451              	.L26:
 360:Generated_Source\PSoC5/cyfitter_cfg.c **** 	}
 361:Generated_Source\PSoC5/cyfitter_cfg.c **** 	else
 362:Generated_Source\PSoC5/cyfitter_cfg.c **** 	{
 363:Generated_Source\PSoC5/cyfitter_cfg.c **** 		regValue &= (uint8)~0x22u;
 452              		.loc 1 363 0
 453 000e 03F0DD03 		and	r3, r3, #221
 454              	.LVL35:
 455              	.L27:
ARM GAS  C:\Users\shiyu\AppData\Local\Temp\ccAVpJNO.s 			page 16


 364:Generated_Source\PSoC5/cyfitter_cfg.c **** 	}
 365:Generated_Source\PSoC5/cyfitter_cfg.c **** 	CY_SET_XTND_REG8((void CYFAR *)CYREG_PUMP_CR0, regValue);
 456              		.loc 1 365 0
 457 0012 014A     		ldr	r2, .L28
 458 0014 1370     		strb	r3, [r2]
 459 0016 7047     		bx	lr
 460              	.L29:
 461              		.align	2
 462              	.L28:
 463 0018 76580040 		.word	1073764470
 464              		.cfi_endproc
 465              	.LFE7:
 466              		.size	SetAnalogRoutingPumps, .-SetAnalogRoutingPumps
 467              		.section	.text.AMux_Set,"ax",%progbits
 468              		.align	2
 469              		.global	AMux_Set
 470              		.thumb
 471              		.thumb_func
 472              		.type	AMux_Set, %function
 473              	AMux_Set:
 474              	.LFB8:
 366:Generated_Source\PSoC5/cyfitter_cfg.c **** }
 367:Generated_Source\PSoC5/cyfitter_cfg.c **** 
 368:Generated_Source\PSoC5/cyfitter_cfg.c **** 
 369:Generated_Source\PSoC5/cyfitter_cfg.c **** #define CY_AMUX_UNUSED CYREG_BOOST_SR
 370:Generated_Source\PSoC5/cyfitter_cfg.c **** /* This is an implementation detail of the AMux. Code that depends on it may be
 371:Generated_Source\PSoC5/cyfitter_cfg.c ****    incompatible with other versions of PSoC Creator. */
 372:Generated_Source\PSoC5/cyfitter_cfg.c **** uint8 CYXDATA * const CYCODE AMux__addrTable[134] = {
 373:Generated_Source\PSoC5/cyfitter_cfg.c **** 	(uint8 CYXDATA *)CYREG_PRT0_AMUX, (uint8 CYXDATA *)CY_AMUX_UNUSED, 
 374:Generated_Source\PSoC5/cyfitter_cfg.c **** 	(uint8 CYXDATA *)CYREG_PRT2_AG, (uint8 CYXDATA *)CY_AMUX_UNUSED, 
 375:Generated_Source\PSoC5/cyfitter_cfg.c **** 	(uint8 CYXDATA *)CYREG_PRT0_AMUX, (uint8 CYXDATA *)CY_AMUX_UNUSED, 
 376:Generated_Source\PSoC5/cyfitter_cfg.c **** 	(uint8 CYXDATA *)CYREG_PRT2_AG, (uint8 CYXDATA *)CY_AMUX_UNUSED, 
 377:Generated_Source\PSoC5/cyfitter_cfg.c **** 	(uint8 CYXDATA *)CYREG_PRT0_AMUX, (uint8 CYXDATA *)CY_AMUX_UNUSED, 
 378:Generated_Source\PSoC5/cyfitter_cfg.c **** 	(uint8 CYXDATA *)CYREG_PRT2_AG, (uint8 CYXDATA *)CY_AMUX_UNUSED, 
 379:Generated_Source\PSoC5/cyfitter_cfg.c **** 	(uint8 CYXDATA *)CYREG_PRT0_AMUX, (uint8 CYXDATA *)CY_AMUX_UNUSED, 
 380:Generated_Source\PSoC5/cyfitter_cfg.c **** 	(uint8 CYXDATA *)CYREG_PRT2_AG, (uint8 CYXDATA *)CY_AMUX_UNUSED, 
 381:Generated_Source\PSoC5/cyfitter_cfg.c **** 	(uint8 CYXDATA *)CYREG_PRT0_AMUX, (uint8 CYXDATA *)CY_AMUX_UNUSED, 
 382:Generated_Source\PSoC5/cyfitter_cfg.c **** 	(uint8 CYXDATA *)CYREG_PRT2_AG, (uint8 CYXDATA *)CY_AMUX_UNUSED, 
 383:Generated_Source\PSoC5/cyfitter_cfg.c **** 	(uint8 CYXDATA *)CYREG_PRT0_AMUX, (uint8 CYXDATA *)CY_AMUX_UNUSED, 
 384:Generated_Source\PSoC5/cyfitter_cfg.c **** 	(uint8 CYXDATA *)CYREG_PRT2_AG, (uint8 CYXDATA *)CY_AMUX_UNUSED, 
 385:Generated_Source\PSoC5/cyfitter_cfg.c **** 	(uint8 CYXDATA *)CYREG_PRT0_AMUX, (uint8 CYXDATA *)CY_AMUX_UNUSED, 
 386:Generated_Source\PSoC5/cyfitter_cfg.c **** 	(uint8 CYXDATA *)CYREG_PRT2_AG, (uint8 CYXDATA *)CY_AMUX_UNUSED, 
 387:Generated_Source\PSoC5/cyfitter_cfg.c **** 	(uint8 CYXDATA *)CYREG_PRT0_AMUX, (uint8 CYXDATA *)CY_AMUX_UNUSED, 
 388:Generated_Source\PSoC5/cyfitter_cfg.c **** 	(uint8 CYXDATA *)CYREG_PRT2_AG, (uint8 CYXDATA *)CY_AMUX_UNUSED, 
 389:Generated_Source\PSoC5/cyfitter_cfg.c **** 	(uint8 CYXDATA *)CYREG_PRT1_AG, (uint8 CYXDATA *)CY_AMUX_UNUSED, 
 390:Generated_Source\PSoC5/cyfitter_cfg.c **** 	(uint8 CYXDATA *)CYREG_PRT2_AG, (uint8 CYXDATA *)CY_AMUX_UNUSED, 
 391:Generated_Source\PSoC5/cyfitter_cfg.c **** 	(uint8 CYXDATA *)CYREG_PRT1_AG, (uint8 CYXDATA *)CYREG_SAR1_SW0, 
 392:Generated_Source\PSoC5/cyfitter_cfg.c **** 	(uint8 CYXDATA *)CYREG_PRT2_AG, (uint8 CYXDATA *)CY_AMUX_UNUSED, 
 393:Generated_Source\PSoC5/cyfitter_cfg.c **** 	(uint8 CYXDATA *)CYREG_PRT1_AG, (uint8 CYXDATA *)CY_AMUX_UNUSED, 
 394:Generated_Source\PSoC5/cyfitter_cfg.c **** 	(uint8 CYXDATA *)CYREG_PRT2_AG, (uint8 CYXDATA *)CY_AMUX_UNUSED, 
 395:Generated_Source\PSoC5/cyfitter_cfg.c **** 	(uint8 CYXDATA *)CYREG_PRT1_AG, (uint8 CYXDATA *)CY_AMUX_UNUSED, 
 396:Generated_Source\PSoC5/cyfitter_cfg.c **** 	(uint8 CYXDATA *)CYREG_PRT2_AG, (uint8 CYXDATA *)CY_AMUX_UNUSED, 
 397:Generated_Source\PSoC5/cyfitter_cfg.c **** 	(uint8 CYXDATA *)CYREG_PRT1_AG, (uint8 CYXDATA *)CYREG_SAR1_SW0, 
 398:Generated_Source\PSoC5/cyfitter_cfg.c **** 	(uint8 CYXDATA *)CYREG_PRT2_AG, (uint8 CYXDATA *)CY_AMUX_UNUSED, 
 399:Generated_Source\PSoC5/cyfitter_cfg.c **** 	(uint8 CYXDATA *)CYREG_PRT2_AG, (uint8 CYXDATA *)CY_AMUX_UNUSED, 
 400:Generated_Source\PSoC5/cyfitter_cfg.c **** 	(uint8 CYXDATA *)CYREG_PRT2_AG, (uint8 CYXDATA *)CY_AMUX_UNUSED, 
 401:Generated_Source\PSoC5/cyfitter_cfg.c **** 	(uint8 CYXDATA *)CYREG_PRT2_AMUX, (uint8 CYXDATA *)CY_AMUX_UNUSED, 
ARM GAS  C:\Users\shiyu\AppData\Local\Temp\ccAVpJNO.s 			page 17


 402:Generated_Source\PSoC5/cyfitter_cfg.c **** 	(uint8 CYXDATA *)CYREG_PRT2_AG, (uint8 CYXDATA *)CY_AMUX_UNUSED, 
 403:Generated_Source\PSoC5/cyfitter_cfg.c **** 	(uint8 CYXDATA *)CYREG_PRT2_AG, (uint8 CYXDATA *)CY_AMUX_UNUSED, 
 404:Generated_Source\PSoC5/cyfitter_cfg.c **** 	(uint8 CYXDATA *)CYREG_PRT2_AG, (uint8 CYXDATA *)CY_AMUX_UNUSED, 
 405:Generated_Source\PSoC5/cyfitter_cfg.c **** 	(uint8 CYXDATA *)CYREG_PRT2_AMUX, (uint8 CYXDATA *)CY_AMUX_UNUSED, 
 406:Generated_Source\PSoC5/cyfitter_cfg.c **** 	(uint8 CYXDATA *)CYREG_PRT2_AG, (uint8 CYXDATA *)CY_AMUX_UNUSED, 
 407:Generated_Source\PSoC5/cyfitter_cfg.c **** 	(uint8 CYXDATA *)CYREG_PRT15_AG, (uint8 CYXDATA *)CY_AMUX_UNUSED, 
 408:Generated_Source\PSoC5/cyfitter_cfg.c **** 	(uint8 CYXDATA *)CYREG_PRT2_AG, (uint8 CYXDATA *)CY_AMUX_UNUSED, 
 409:Generated_Source\PSoC5/cyfitter_cfg.c **** 	(uint8 CYXDATA *)CYREG_PRT2_AG, (uint8 CYXDATA *)CY_AMUX_UNUSED, 
 410:Generated_Source\PSoC5/cyfitter_cfg.c **** 	(uint8 CYXDATA *)CYREG_PRT2_AG, (uint8 CYXDATA *)CY_AMUX_UNUSED, 
 411:Generated_Source\PSoC5/cyfitter_cfg.c **** 	(uint8 CYXDATA *)CYREG_PRT2_AMUX, (uint8 CYXDATA *)CY_AMUX_UNUSED, 
 412:Generated_Source\PSoC5/cyfitter_cfg.c **** 	(uint8 CYXDATA *)CYREG_PRT2_AG, (uint8 CYXDATA *)CY_AMUX_UNUSED, 
 413:Generated_Source\PSoC5/cyfitter_cfg.c **** 	(uint8 CYXDATA *)CYREG_PRT2_AMUX, (uint8 CYXDATA *)CY_AMUX_UNUSED, 
 414:Generated_Source\PSoC5/cyfitter_cfg.c **** 	(uint8 CYXDATA *)CYREG_PRT2_AG, (uint8 CYXDATA *)CY_AMUX_UNUSED, 
 415:Generated_Source\PSoC5/cyfitter_cfg.c **** 	(uint8 CYXDATA *)CYREG_PRT3_AG, (uint8 CYXDATA *)CY_AMUX_UNUSED, 
 416:Generated_Source\PSoC5/cyfitter_cfg.c **** 	(uint8 CYXDATA *)CYREG_PRT2_AG, (uint8 CYXDATA *)CY_AMUX_UNUSED, 
 417:Generated_Source\PSoC5/cyfitter_cfg.c **** 	(uint8 CYXDATA *)CYREG_PRT3_AG, (uint8 CYXDATA *)CY_AMUX_UNUSED, 
 418:Generated_Source\PSoC5/cyfitter_cfg.c **** 	(uint8 CYXDATA *)CYREG_PRT2_AG, (uint8 CYXDATA *)CY_AMUX_UNUSED, 
 419:Generated_Source\PSoC5/cyfitter_cfg.c **** 	(uint8 CYXDATA *)CYREG_PRT3_AG, (uint8 CYXDATA *)CY_AMUX_UNUSED, 
 420:Generated_Source\PSoC5/cyfitter_cfg.c **** 	(uint8 CYXDATA *)CYREG_PRT2_AG, (uint8 CYXDATA *)CY_AMUX_UNUSED, 
 421:Generated_Source\PSoC5/cyfitter_cfg.c **** 	(uint8 CYXDATA *)CYREG_PRT3_AG, (uint8 CYXDATA *)CY_AMUX_UNUSED, 
 422:Generated_Source\PSoC5/cyfitter_cfg.c **** 	(uint8 CYXDATA *)CYREG_PRT2_AG, (uint8 CYXDATA *)CY_AMUX_UNUSED, 
 423:Generated_Source\PSoC5/cyfitter_cfg.c **** 	(uint8 CYXDATA *)CYREG_PRT3_AG, (uint8 CYXDATA *)CY_AMUX_UNUSED, 
 424:Generated_Source\PSoC5/cyfitter_cfg.c **** 	(uint8 CYXDATA *)CYREG_PRT2_AG, (uint8 CYXDATA *)CY_AMUX_UNUSED, 
 425:Generated_Source\PSoC5/cyfitter_cfg.c **** 	(uint8 CYXDATA *)CYREG_PRT3_AG, (uint8 CYXDATA *)CY_AMUX_UNUSED, 
 426:Generated_Source\PSoC5/cyfitter_cfg.c **** 	(uint8 CYXDATA *)CYREG_PRT2_AG, (uint8 CYXDATA *)CY_AMUX_UNUSED, 
 427:Generated_Source\PSoC5/cyfitter_cfg.c **** 	(uint8 CYXDATA *)CYREG_PRT3_AG, (uint8 CYXDATA *)CY_AMUX_UNUSED, 
 428:Generated_Source\PSoC5/cyfitter_cfg.c **** 	(uint8 CYXDATA *)CYREG_PRT2_AG, (uint8 CYXDATA *)CY_AMUX_UNUSED, 
 429:Generated_Source\PSoC5/cyfitter_cfg.c **** 	(uint8 CYXDATA *)CYREG_PRT3_AG, (uint8 CYXDATA *)CY_AMUX_UNUSED, 
 430:Generated_Source\PSoC5/cyfitter_cfg.c **** 	(uint8 CYXDATA *)CYREG_PRT2_AG, (uint8 CYXDATA *)CY_AMUX_UNUSED, 
 431:Generated_Source\PSoC5/cyfitter_cfg.c **** 	(uint8 CYXDATA *)CYREG_PRT15_AG, (uint8 CYXDATA *)CY_AMUX_UNUSED, 
 432:Generated_Source\PSoC5/cyfitter_cfg.c **** 	(uint8 CYXDATA *)CYREG_PRT2_AG, (uint8 CYXDATA *)CY_AMUX_UNUSED, 
 433:Generated_Source\PSoC5/cyfitter_cfg.c **** 	(uint8 CYXDATA *)CYREG_PRT15_AG, (uint8 CYXDATA *)CY_AMUX_UNUSED, 
 434:Generated_Source\PSoC5/cyfitter_cfg.c **** 	(uint8 CYXDATA *)CYREG_PRT2_AG, (uint8 CYXDATA *)CY_AMUX_UNUSED, 
 435:Generated_Source\PSoC5/cyfitter_cfg.c **** 	(uint8 CYXDATA *)CYREG_PRT15_AG, (uint8 CYXDATA *)CY_AMUX_UNUSED, 
 436:Generated_Source\PSoC5/cyfitter_cfg.c **** 	(uint8 CYXDATA *)CYREG_PRT2_AG, (uint8 CYXDATA *)CY_AMUX_UNUSED, 
 437:Generated_Source\PSoC5/cyfitter_cfg.c **** 	(uint8 CYXDATA *)CYREG_PRT15_AG, (uint8 CYXDATA *)CY_AMUX_UNUSED, 
 438:Generated_Source\PSoC5/cyfitter_cfg.c **** 	(uint8 CYXDATA *)CYREG_PRT2_AG, (uint8 CYXDATA *)CY_AMUX_UNUSED, 
 439:Generated_Source\PSoC5/cyfitter_cfg.c **** 	(uint8 CYXDATA *)CYREG_PRT15_AG, (uint8 CYXDATA *)CY_AMUX_UNUSED, 
 440:Generated_Source\PSoC5/cyfitter_cfg.c **** };
 441:Generated_Source\PSoC5/cyfitter_cfg.c **** 
 442:Generated_Source\PSoC5/cyfitter_cfg.c **** /* This is an implementation detail of the AMux. Code that depends on it may be
 443:Generated_Source\PSoC5/cyfitter_cfg.c ****    incompatible with other versions of PSoC Creator. */
 444:Generated_Source\PSoC5/cyfitter_cfg.c **** const uint8 CYCODE AMux__maskTable[134] = {
 445:Generated_Source\PSoC5/cyfitter_cfg.c **** 	0x01u, 0x00u, 
 446:Generated_Source\PSoC5/cyfitter_cfg.c **** 	0x10u, 0x00u, 
 447:Generated_Source\PSoC5/cyfitter_cfg.c **** 	0x02u, 0x00u, 
 448:Generated_Source\PSoC5/cyfitter_cfg.c **** 	0x10u, 0x00u, 
 449:Generated_Source\PSoC5/cyfitter_cfg.c **** 	0x04u, 0x00u, 
 450:Generated_Source\PSoC5/cyfitter_cfg.c **** 	0x10u, 0x00u, 
 451:Generated_Source\PSoC5/cyfitter_cfg.c **** 	0x08u, 0x00u, 
 452:Generated_Source\PSoC5/cyfitter_cfg.c **** 	0x10u, 0x00u, 
 453:Generated_Source\PSoC5/cyfitter_cfg.c **** 	0x10u, 0x00u, 
 454:Generated_Source\PSoC5/cyfitter_cfg.c **** 	0x10u, 0x00u, 
 455:Generated_Source\PSoC5/cyfitter_cfg.c **** 	0x20u, 0x00u, 
 456:Generated_Source\PSoC5/cyfitter_cfg.c **** 	0x10u, 0x00u, 
 457:Generated_Source\PSoC5/cyfitter_cfg.c **** 	0x40u, 0x00u, 
 458:Generated_Source\PSoC5/cyfitter_cfg.c **** 	0x10u, 0x00u, 
ARM GAS  C:\Users\shiyu\AppData\Local\Temp\ccAVpJNO.s 			page 18


 459:Generated_Source\PSoC5/cyfitter_cfg.c **** 	0x80u, 0x00u, 
 460:Generated_Source\PSoC5/cyfitter_cfg.c **** 	0x10u, 0x00u, 
 461:Generated_Source\PSoC5/cyfitter_cfg.c **** 	0x04u, 0x00u, 
 462:Generated_Source\PSoC5/cyfitter_cfg.c **** 	0x10u, 0x00u, 
 463:Generated_Source\PSoC5/cyfitter_cfg.c **** 	0x10u, 0x01u, 
 464:Generated_Source\PSoC5/cyfitter_cfg.c **** 	0x10u, 0x00u, 
 465:Generated_Source\PSoC5/cyfitter_cfg.c **** 	0x20u, 0x00u, 
 466:Generated_Source\PSoC5/cyfitter_cfg.c **** 	0x10u, 0x00u, 
 467:Generated_Source\PSoC5/cyfitter_cfg.c **** 	0x40u, 0x00u, 
 468:Generated_Source\PSoC5/cyfitter_cfg.c **** 	0x10u, 0x00u, 
 469:Generated_Source\PSoC5/cyfitter_cfg.c **** 	0x80u, 0x08u, 
 470:Generated_Source\PSoC5/cyfitter_cfg.c **** 	0x10u, 0x00u, 
 471:Generated_Source\PSoC5/cyfitter_cfg.c **** 	0x01u, 0x00u, 
 472:Generated_Source\PSoC5/cyfitter_cfg.c **** 	0x10u, 0x00u, 
 473:Generated_Source\PSoC5/cyfitter_cfg.c **** 	0x04u, 0x00u, 
 474:Generated_Source\PSoC5/cyfitter_cfg.c **** 	0x10u, 0x00u, 
 475:Generated_Source\PSoC5/cyfitter_cfg.c **** 	0x02u, 0x00u, 
 476:Generated_Source\PSoC5/cyfitter_cfg.c **** 	0x10u, 0x00u, 
 477:Generated_Source\PSoC5/cyfitter_cfg.c **** 	0x08u, 0x00u, 
 478:Generated_Source\PSoC5/cyfitter_cfg.c **** 	0x10u, 0x00u, 
 479:Generated_Source\PSoC5/cyfitter_cfg.c **** 	0x20u, 0x00u, 
 480:Generated_Source\PSoC5/cyfitter_cfg.c **** 	0x10u, 0x00u, 
 481:Generated_Source\PSoC5/cyfitter_cfg.c **** 	0x20u, 0x00u, 
 482:Generated_Source\PSoC5/cyfitter_cfg.c **** 	0x10u, 0x00u, 
 483:Generated_Source\PSoC5/cyfitter_cfg.c **** 	0x40u, 0x00u, 
 484:Generated_Source\PSoC5/cyfitter_cfg.c **** 	0x10u, 0x00u, 
 485:Generated_Source\PSoC5/cyfitter_cfg.c **** 	0x80u, 0x00u, 
 486:Generated_Source\PSoC5/cyfitter_cfg.c **** 	0x10u, 0x00u, 
 487:Generated_Source\PSoC5/cyfitter_cfg.c **** 	0x01u, 0x00u, 
 488:Generated_Source\PSoC5/cyfitter_cfg.c **** 	0x10u, 0x00u, 
 489:Generated_Source\PSoC5/cyfitter_cfg.c **** 	0x02u, 0x00u, 
 490:Generated_Source\PSoC5/cyfitter_cfg.c **** 	0x10u, 0x00u, 
 491:Generated_Source\PSoC5/cyfitter_cfg.c **** 	0x04u, 0x00u, 
 492:Generated_Source\PSoC5/cyfitter_cfg.c **** 	0x10u, 0x00u, 
 493:Generated_Source\PSoC5/cyfitter_cfg.c **** 	0x08u, 0x00u, 
 494:Generated_Source\PSoC5/cyfitter_cfg.c **** 	0x10u, 0x00u, 
 495:Generated_Source\PSoC5/cyfitter_cfg.c **** 	0x10u, 0x00u, 
 496:Generated_Source\PSoC5/cyfitter_cfg.c **** 	0x10u, 0x00u, 
 497:Generated_Source\PSoC5/cyfitter_cfg.c **** 	0x20u, 0x00u, 
 498:Generated_Source\PSoC5/cyfitter_cfg.c **** 	0x10u, 0x00u, 
 499:Generated_Source\PSoC5/cyfitter_cfg.c **** 	0x40u, 0x00u, 
 500:Generated_Source\PSoC5/cyfitter_cfg.c **** 	0x10u, 0x00u, 
 501:Generated_Source\PSoC5/cyfitter_cfg.c **** 	0x80u, 0x00u, 
 502:Generated_Source\PSoC5/cyfitter_cfg.c **** 	0x10u, 0x00u, 
 503:Generated_Source\PSoC5/cyfitter_cfg.c **** 	0x01u, 0x00u, 
 504:Generated_Source\PSoC5/cyfitter_cfg.c **** 	0x10u, 0x00u, 
 505:Generated_Source\PSoC5/cyfitter_cfg.c **** 	0x02u, 0x00u, 
 506:Generated_Source\PSoC5/cyfitter_cfg.c **** 	0x10u, 0x00u, 
 507:Generated_Source\PSoC5/cyfitter_cfg.c **** 	0x04u, 0x00u, 
 508:Generated_Source\PSoC5/cyfitter_cfg.c **** 	0x10u, 0x00u, 
 509:Generated_Source\PSoC5/cyfitter_cfg.c **** 	0x08u, 0x00u, 
 510:Generated_Source\PSoC5/cyfitter_cfg.c **** 	0x10u, 0x00u, 
 511:Generated_Source\PSoC5/cyfitter_cfg.c **** 	0x10u, 0x00u, 
 512:Generated_Source\PSoC5/cyfitter_cfg.c **** };
 513:Generated_Source\PSoC5/cyfitter_cfg.c **** 
 514:Generated_Source\PSoC5/cyfitter_cfg.c **** /*******************************************************************************
 515:Generated_Source\PSoC5/cyfitter_cfg.c **** * Function Name: AMux_Set
ARM GAS  C:\Users\shiyu\AppData\Local\Temp\ccAVpJNO.s 			page 19


 516:Generated_Source\PSoC5/cyfitter_cfg.c **** ********************************************************************************
 517:Generated_Source\PSoC5/cyfitter_cfg.c **** * Summary:
 518:Generated_Source\PSoC5/cyfitter_cfg.c **** *  This function is used to set a particular channel as active on the AMux.
 519:Generated_Source\PSoC5/cyfitter_cfg.c **** *
 520:Generated_Source\PSoC5/cyfitter_cfg.c **** * Parameters:  
 521:Generated_Source\PSoC5/cyfitter_cfg.c **** *   channel - The mux channel input to set as active
 522:Generated_Source\PSoC5/cyfitter_cfg.c **** *
 523:Generated_Source\PSoC5/cyfitter_cfg.c **** * Return:
 524:Generated_Source\PSoC5/cyfitter_cfg.c **** *   void
 525:Generated_Source\PSoC5/cyfitter_cfg.c **** *
 526:Generated_Source\PSoC5/cyfitter_cfg.c **** *******************************************************************************/
 527:Generated_Source\PSoC5/cyfitter_cfg.c **** void AMux_Set(uint8 channel)
 528:Generated_Source\PSoC5/cyfitter_cfg.c **** {
 475              		.loc 1 528 0
 476              		.cfi_startproc
 477              		@ args = 0, pretend = 0, frame = 0
 478              		@ frame_needed = 0, uses_anonymous_args = 0
 479              		@ link register save eliminated.
 480              	.LVL36:
 529:Generated_Source\PSoC5/cyfitter_cfg.c **** 	if (channel < 67)
 481              		.loc 1 529 0
 482 0000 4228     		cmp	r0, #66
 483 0002 16D8     		bhi	.L34
 528:Generated_Source\PSoC5/cyfitter_cfg.c **** 	if (channel < 67)
 484              		.loc 1 528 0
 485 0004 10B4     		push	{r4}
 486              		.cfi_def_cfa_offset 4
 487              		.cfi_offset 4, -4
 530:Generated_Source\PSoC5/cyfitter_cfg.c **** 	{
 531:Generated_Source\PSoC5/cyfitter_cfg.c **** 		channel += channel;
 488              		.loc 1 531 0
 489 0006 4000     		lsls	r0, r0, #1
 490              	.LVL37:
 491 0008 C0B2     		uxtb	r0, r0
 492              	.LVL38:
 532:Generated_Source\PSoC5/cyfitter_cfg.c **** 		*AMux__addrTable[channel] |= AMux__maskTable[channel];
 493              		.loc 1 532 0
 494 000a 0A4B     		ldr	r3, .L35
 495 000c 53F82010 		ldr	r1, [r3, r0, lsl #2]
 496 0010 1A18     		adds	r2, r3, r0
 497 0012 92F81842 		ldrb	r4, [r2, #536]	@ zero_extendqisi2
 498 0016 0A78     		ldrb	r2, [r1]	@ zero_extendqisi2
 499 0018 2243     		orrs	r2, r2, r4
 500 001a 0A70     		strb	r2, [r1]
 533:Generated_Source\PSoC5/cyfitter_cfg.c **** 		channel++;
 501              		.loc 1 533 0
 502 001c 0130     		adds	r0, r0, #1
 503              	.LVL39:
 504 001e C0B2     		uxtb	r0, r0
 505              	.LVL40:
 534:Generated_Source\PSoC5/cyfitter_cfg.c **** 		*AMux__addrTable[channel] |= AMux__maskTable[channel];
 506              		.loc 1 534 0
 507 0020 53F82020 		ldr	r2, [r3, r0, lsl #2]
 508 0024 1844     		add	r0, r0, r3
 509              	.LVL41:
 510 0026 90F81812 		ldrb	r1, [r0, #536]	@ zero_extendqisi2
 511 002a 1378     		ldrb	r3, [r2]	@ zero_extendqisi2
ARM GAS  C:\Users\shiyu\AppData\Local\Temp\ccAVpJNO.s 			page 20


 512 002c 0B43     		orrs	r3, r3, r1
 513 002e 1370     		strb	r3, [r2]
 535:Generated_Source\PSoC5/cyfitter_cfg.c **** 	}
 536:Generated_Source\PSoC5/cyfitter_cfg.c **** }
 514              		.loc 1 536 0
 515 0030 10BC     		pop	{r4}
 516              		.cfi_restore 4
 517              		.cfi_def_cfa_offset 0
 518              	.LVL42:
 519              	.L34:
 520 0032 7047     		bx	lr
 521              	.L36:
 522              		.align	2
 523              	.L35:
 524 0034 00000000 		.word	.LANCHOR0
 525              		.cfi_endproc
 526              	.LFE8:
 527              		.size	AMux_Set, .-AMux_Set
 528              		.section	.text.AMux_Unset,"ax",%progbits
 529              		.align	2
 530              		.global	AMux_Unset
 531              		.thumb
 532              		.thumb_func
 533              		.type	AMux_Unset, %function
 534              	AMux_Unset:
 535              	.LFB9:
 537:Generated_Source\PSoC5/cyfitter_cfg.c **** 
 538:Generated_Source\PSoC5/cyfitter_cfg.c **** /*******************************************************************************
 539:Generated_Source\PSoC5/cyfitter_cfg.c **** * Function Name: AMux_Unset
 540:Generated_Source\PSoC5/cyfitter_cfg.c **** ********************************************************************************
 541:Generated_Source\PSoC5/cyfitter_cfg.c **** * Summary:
 542:Generated_Source\PSoC5/cyfitter_cfg.c **** *  This function is used to clear a particular channel from being active on the
 543:Generated_Source\PSoC5/cyfitter_cfg.c **** *  AMux.
 544:Generated_Source\PSoC5/cyfitter_cfg.c **** *
 545:Generated_Source\PSoC5/cyfitter_cfg.c **** * Parameters:  
 546:Generated_Source\PSoC5/cyfitter_cfg.c **** *   channel - The mux channel input to mark inactive
 547:Generated_Source\PSoC5/cyfitter_cfg.c **** *
 548:Generated_Source\PSoC5/cyfitter_cfg.c **** * Return:
 549:Generated_Source\PSoC5/cyfitter_cfg.c **** *   void
 550:Generated_Source\PSoC5/cyfitter_cfg.c **** *
 551:Generated_Source\PSoC5/cyfitter_cfg.c **** *******************************************************************************/
 552:Generated_Source\PSoC5/cyfitter_cfg.c **** void AMux_Unset(uint8 channel)
 553:Generated_Source\PSoC5/cyfitter_cfg.c **** {
 536              		.loc 1 553 0
 537              		.cfi_startproc
 538              		@ args = 0, pretend = 0, frame = 0
 539              		@ frame_needed = 0, uses_anonymous_args = 0
 540              		@ link register save eliminated.
 541              	.LVL43:
 554:Generated_Source\PSoC5/cyfitter_cfg.c **** 	if (channel < 67)
 542              		.loc 1 554 0
 543 0000 4228     		cmp	r0, #66
 544 0002 18D8     		bhi	.L41
 553:Generated_Source\PSoC5/cyfitter_cfg.c **** 	if (channel < 67)
 545              		.loc 1 553 0
 546 0004 10B4     		push	{r4}
 547              		.cfi_def_cfa_offset 4
ARM GAS  C:\Users\shiyu\AppData\Local\Temp\ccAVpJNO.s 			page 21


 548              		.cfi_offset 4, -4
 555:Generated_Source\PSoC5/cyfitter_cfg.c **** 	{
 556:Generated_Source\PSoC5/cyfitter_cfg.c **** 		channel += channel;
 549              		.loc 1 556 0
 550 0006 4000     		lsls	r0, r0, #1
 551              	.LVL44:
 552 0008 C0B2     		uxtb	r0, r0
 553              	.LVL45:
 557:Generated_Source\PSoC5/cyfitter_cfg.c **** 		*AMux__addrTable[channel] &= (uint8)~AMux__maskTable[channel];
 554              		.loc 1 557 0
 555 000a 0B4B     		ldr	r3, .L42
 556 000c 53F82010 		ldr	r1, [r3, r0, lsl #2]
 557 0010 1A18     		adds	r2, r3, r0
 558 0012 92F81842 		ldrb	r4, [r2, #536]	@ zero_extendqisi2
 559 0016 0A78     		ldrb	r2, [r1]	@ zero_extendqisi2
 560 0018 22EA0402 		bic	r2, r2, r4
 561 001c 0A70     		strb	r2, [r1]
 558:Generated_Source\PSoC5/cyfitter_cfg.c **** 		channel++;
 562              		.loc 1 558 0
 563 001e 0130     		adds	r0, r0, #1
 564              	.LVL46:
 565 0020 C0B2     		uxtb	r0, r0
 566              	.LVL47:
 559:Generated_Source\PSoC5/cyfitter_cfg.c **** 		*AMux__addrTable[channel] &= (uint8)~AMux__maskTable[channel];
 567              		.loc 1 559 0
 568 0022 53F82020 		ldr	r2, [r3, r0, lsl #2]
 569 0026 1844     		add	r0, r0, r3
 570              	.LVL48:
 571 0028 90F81812 		ldrb	r1, [r0, #536]	@ zero_extendqisi2
 572 002c 1378     		ldrb	r3, [r2]	@ zero_extendqisi2
 573 002e 23EA0103 		bic	r3, r3, r1
 574 0032 1370     		strb	r3, [r2]
 560:Generated_Source\PSoC5/cyfitter_cfg.c **** 	}
 561:Generated_Source\PSoC5/cyfitter_cfg.c **** }
 575              		.loc 1 561 0
 576 0034 10BC     		pop	{r4}
 577              		.cfi_restore 4
 578              		.cfi_def_cfa_offset 0
 579              	.LVL49:
 580              	.L41:
 581 0036 7047     		bx	lr
 582              	.L43:
 583              		.align	2
 584              	.L42:
 585 0038 00000000 		.word	.LANCHOR0
 586              		.cfi_endproc
 587              	.LFE9:
 588              		.size	AMux_Unset, .-AMux_Unset
 589              		.section	.text.cyfitter_cfg,"ax",%progbits
 590              		.align	2
 591              		.global	cyfitter_cfg
 592              		.thumb
 593              		.thumb_func
 594              		.type	cyfitter_cfg, %function
 595              	cyfitter_cfg:
 596              	.LFB10:
 562:Generated_Source\PSoC5/cyfitter_cfg.c **** 
ARM GAS  C:\Users\shiyu\AppData\Local\Temp\ccAVpJNO.s 			page 22


 563:Generated_Source\PSoC5/cyfitter_cfg.c **** 
 564:Generated_Source\PSoC5/cyfitter_cfg.c **** 
 565:Generated_Source\PSoC5/cyfitter_cfg.c **** /*******************************************************************************
 566:Generated_Source\PSoC5/cyfitter_cfg.c **** * Function Name: cyfitter_cfg
 567:Generated_Source\PSoC5/cyfitter_cfg.c **** ********************************************************************************
 568:Generated_Source\PSoC5/cyfitter_cfg.c **** * Summary:
 569:Generated_Source\PSoC5/cyfitter_cfg.c **** *  This function is called by the start-up code for the selected device. It
 570:Generated_Source\PSoC5/cyfitter_cfg.c **** *  performs all of the necessary device configuration based on the design
 571:Generated_Source\PSoC5/cyfitter_cfg.c **** *  settings.  This includes settings from the Design Wide Resources (DWR) such
 572:Generated_Source\PSoC5/cyfitter_cfg.c **** *  as Clocks and Pins as well as any component configuration that is necessary.
 573:Generated_Source\PSoC5/cyfitter_cfg.c **** *
 574:Generated_Source\PSoC5/cyfitter_cfg.c **** * Parameters:
 575:Generated_Source\PSoC5/cyfitter_cfg.c **** *   void
 576:Generated_Source\PSoC5/cyfitter_cfg.c **** *
 577:Generated_Source\PSoC5/cyfitter_cfg.c **** * Return:
 578:Generated_Source\PSoC5/cyfitter_cfg.c **** *   void
 579:Generated_Source\PSoC5/cyfitter_cfg.c **** *
 580:Generated_Source\PSoC5/cyfitter_cfg.c **** *******************************************************************************/
 581:Generated_Source\PSoC5/cyfitter_cfg.c **** 
 582:Generated_Source\PSoC5/cyfitter_cfg.c **** void cyfitter_cfg(void)
 583:Generated_Source\PSoC5/cyfitter_cfg.c **** {
 597              		.loc 1 583 0
 598              		.cfi_startproc
 599              		@ args = 0, pretend = 0, frame = 0
 600              		@ frame_needed = 0, uses_anonymous_args = 0
 601 0000 38B5     		push	{r3, r4, r5, lr}
 602              		.cfi_def_cfa_offset 16
 603              		.cfi_offset 3, -16
 604              		.cfi_offset 4, -12
 605              		.cfi_offset 5, -8
 606              		.cfi_offset 14, -4
 584:Generated_Source\PSoC5/cyfitter_cfg.c **** #ifdef CYGlobalIntDisable
 585:Generated_Source\PSoC5/cyfitter_cfg.c **** 	/* Disable interrupts by default. Let user enable if/when they want. */
 586:Generated_Source\PSoC5/cyfitter_cfg.c **** 	CYGlobalIntDisable
 607              		.loc 1 586 0
 608              		.syntax unified
 609              	@ 586 "Generated_Source\PSoC5\cyfitter_cfg.c" 1
 610 0002 72B6     		CPSID   i
 611              	@ 0 "" 2
 587:Generated_Source\PSoC5/cyfitter_cfg.c **** #endif
 588:Generated_Source\PSoC5/cyfitter_cfg.c **** 
 589:Generated_Source\PSoC5/cyfitter_cfg.c **** 	/* Enable/Disable Debug functionality based on settings from System DWR */
 590:Generated_Source\PSoC5/cyfitter_cfg.c **** 	CY_SET_XTND_REG8((void CYFAR *)CYREG_MLOGIC_DEBUG, (CY_GET_XTND_REG8((void CYFAR *)CYREG_MLOGIC_DE
 612              		.loc 1 590 0
 613              		.thumb
 614              		.syntax unified
 615 0004 3C4A     		ldr	r2, .L50
 616 0006 1378     		ldrb	r3, [r2]	@ zero_extendqisi2
 617 0008 43F00403 		orr	r3, r3, #4
 618 000c 1370     		strb	r3, [r2]
 619              	.LVL50:
 620              	.LBB3:
 591:Generated_Source\PSoC5/cyfitter_cfg.c **** 
 592:Generated_Source\PSoC5/cyfitter_cfg.c **** 	{
 593:Generated_Source\PSoC5/cyfitter_cfg.c **** 
 594:Generated_Source\PSoC5/cyfitter_cfg.c **** 		CYPACKED typedef struct {
 595:Generated_Source\PSoC5/cyfitter_cfg.c **** 			void CYFAR *address;
ARM GAS  C:\Users\shiyu\AppData\Local\Temp\ccAVpJNO.s 			page 23


 596:Generated_Source\PSoC5/cyfitter_cfg.c **** 			uint16 size;
 597:Generated_Source\PSoC5/cyfitter_cfg.c **** 		} CYPACKED_ATTR cfg_memset_t;
 598:Generated_Source\PSoC5/cyfitter_cfg.c **** 
 599:Generated_Source\PSoC5/cyfitter_cfg.c **** 
 600:Generated_Source\PSoC5/cyfitter_cfg.c **** 		CYPACKED typedef struct {
 601:Generated_Source\PSoC5/cyfitter_cfg.c **** 			void CYFAR *dest;
 602:Generated_Source\PSoC5/cyfitter_cfg.c **** 			const void CYFAR *src;
 603:Generated_Source\PSoC5/cyfitter_cfg.c **** 			uint16 size;
 604:Generated_Source\PSoC5/cyfitter_cfg.c **** 		} CYPACKED_ATTR cfg_memcpy_t;
 605:Generated_Source\PSoC5/cyfitter_cfg.c **** 
 606:Generated_Source\PSoC5/cyfitter_cfg.c **** 		static const cfg_memset_t CYCODE cfg_memset_list[] = {
 607:Generated_Source\PSoC5/cyfitter_cfg.c **** 			/* address, size */
 608:Generated_Source\PSoC5/cyfitter_cfg.c **** 			{(void CYFAR *)(CYREG_TMR0_CFG0), 12u},
 609:Generated_Source\PSoC5/cyfitter_cfg.c **** 			{(void CYFAR *)(CYREG_PRT4_DR), 48u},
 610:Generated_Source\PSoC5/cyfitter_cfg.c **** 			{(void CYFAR *)(CYDEV_UCFG_B0_P0_U0_BASE), 4096u},
 611:Generated_Source\PSoC5/cyfitter_cfg.c **** 			{(void CYFAR *)(CYDEV_UCFG_B1_P2_U0_BASE), 1024u},
 612:Generated_Source\PSoC5/cyfitter_cfg.c **** 			{(void CYFAR *)(CYDEV_UCFG_B1_P4_U1_BASE), 896u},
 613:Generated_Source\PSoC5/cyfitter_cfg.c **** 			{(void CYFAR *)(CYDEV_UCFG_DSI0_BASE), 2560u},
 614:Generated_Source\PSoC5/cyfitter_cfg.c **** 			{(void CYFAR *)(CYDEV_UCFG_DSI12_BASE), 512u},
 615:Generated_Source\PSoC5/cyfitter_cfg.c **** 			{(void CYFAR *)(CYREG_BCTL0_MDCLK_EN), 32u},
 616:Generated_Source\PSoC5/cyfitter_cfg.c **** 		};
 617:Generated_Source\PSoC5/cyfitter_cfg.c **** 
 618:Generated_Source\PSoC5/cyfitter_cfg.c **** 		static const cfg_memcpy_t CYCODE cfg_memcpy_list [] = {
 619:Generated_Source\PSoC5/cyfitter_cfg.c **** 			/* dest, src, size */
 620:Generated_Source\PSoC5/cyfitter_cfg.c **** 			{(void CYFAR *)(CYDEV_PRTDSI_PRT12_BASE), BS_IOPORT_7_VAL, 6u},
 621:Generated_Source\PSoC5/cyfitter_cfg.c **** 			{(void CYFAR *)(CYDEV_UCFG_B1_P4_U0_BASE), BS_UDB_0_1_1_CONFIG_VAL, 128u},
 622:Generated_Source\PSoC5/cyfitter_cfg.c **** 		};
 623:Generated_Source\PSoC5/cyfitter_cfg.c **** 
 624:Generated_Source\PSoC5/cyfitter_cfg.c **** 		uint8 CYDATA i;
 625:Generated_Source\PSoC5/cyfitter_cfg.c **** 
 626:Generated_Source\PSoC5/cyfitter_cfg.c **** 		/* Zero out critical memory blocks before beginning configuration */
 627:Generated_Source\PSoC5/cyfitter_cfg.c **** 		for (i = 0u; i < (sizeof(cfg_memset_list)/sizeof(cfg_memset_list[0])); i++)
 621              		.loc 1 627 0
 622 000e 0024     		movs	r4, #0
 623 0010 0DE0     		b	.L45
 624              	.LVL51:
 625              	.L46:
 626              	.LBB4:
 628:Generated_Source\PSoC5/cyfitter_cfg.c **** 		{
 629:Generated_Source\PSoC5/cyfitter_cfg.c **** 			const cfg_memset_t CYCODE * CYDATA ms = &cfg_memset_list[i];
 630:Generated_Source\PSoC5/cyfitter_cfg.c **** 			CYMEMZERO(ms->address, (size_t)(uint32)(ms->size));
 627              		.loc 1 630 0 discriminator 3
 628 0012 3A48     		ldr	r0, .L50+4
 629 0014 6300     		lsls	r3, r4, #1
 630 0016 1A19     		adds	r2, r3, r4
 631 0018 5100     		lsls	r1, r2, #1
 632 001a 0144     		add	r1, r1, r0
 633 001c 0A46     		mov	r2, r1
 634 001e B1F8A412 		ldrh	r1, [r1, #676]
 635 0022 D2F8A002 		ldr	r0, [r2, #672]	@ unaligned
 636 0026 FFF7FEFF 		bl	CYMEMZERO
 637              	.LVL52:
 638              	.LBE4:
 627:Generated_Source\PSoC5/cyfitter_cfg.c **** 		{
 639              		.loc 1 627 0 discriminator 3
 640 002a 0134     		adds	r4, r4, #1
 641              	.LVL53:
ARM GAS  C:\Users\shiyu\AppData\Local\Temp\ccAVpJNO.s 			page 24


 642 002c E4B2     		uxtb	r4, r4
 643              	.LVL54:
 644              	.L45:
 627:Generated_Source\PSoC5/cyfitter_cfg.c **** 		{
 645              		.loc 1 627 0 is_stmt 0 discriminator 1
 646 002e 072C     		cmp	r4, #7
 647 0030 EFD9     		bls	.L46
 648 0032 0024     		movs	r4, #0
 649              	.LVL55:
 650 0034 0EE0     		b	.L47
 651              	.LVL56:
 652              	.L48:
 653              	.LBB5:
 631:Generated_Source\PSoC5/cyfitter_cfg.c **** 		}
 632:Generated_Source\PSoC5/cyfitter_cfg.c **** 
 633:Generated_Source\PSoC5/cyfitter_cfg.c **** 		/* Copy device configuration data into registers */
 634:Generated_Source\PSoC5/cyfitter_cfg.c **** 		for (i = 0u; i < (sizeof(cfg_memcpy_list)/sizeof(cfg_memcpy_list[0])); i++)
 635:Generated_Source\PSoC5/cyfitter_cfg.c **** 		{
 636:Generated_Source\PSoC5/cyfitter_cfg.c **** 			const cfg_memcpy_t CYCODE * CYDATA mc = &cfg_memcpy_list[i];
 637:Generated_Source\PSoC5/cyfitter_cfg.c **** 			void * CYDATA destPtr = mc->dest;
 654              		.loc 1 637 0 is_stmt 1 discriminator 3
 655 0036 3148     		ldr	r0, .L50+4
 656 0038 A200     		lsls	r2, r4, #2
 657 003a 1119     		adds	r1, r2, r4
 658 003c 4B00     		lsls	r3, r1, #1
 659 003e 0344     		add	r3, r3, r0
 660              	.LVL57:
 638:Generated_Source\PSoC5/cyfitter_cfg.c **** 			const void * CYDATA srcPtr = mc->src;
 639:Generated_Source\PSoC5/cyfitter_cfg.c **** 			uint16 CYDATA numBytes = mc->size;
 640:Generated_Source\PSoC5/cyfitter_cfg.c **** 			CYCONFIGCPY(destPtr, srcPtr, numBytes);
 661              		.loc 1 640 0 discriminator 3
 662 0040 B3F8D822 		ldrh	r2, [r3, #728]
 663 0044 D3F8D412 		ldr	r1, [r3, #724]	@ unaligned
 664              	.LVL58:
 665 0048 D3F8D002 		ldr	r0, [r3, #720]	@ unaligned
 666              	.LVL59:
 667 004c FFF7FEFF 		bl	CYCONFIGCPY
 668              	.LVL60:
 669              	.LBE5:
 634:Generated_Source\PSoC5/cyfitter_cfg.c **** 		{
 670              		.loc 1 634 0 discriminator 3
 671 0050 0134     		adds	r4, r4, #1
 672              	.LVL61:
 673 0052 E4B2     		uxtb	r4, r4
 674              	.LVL62:
 675              	.L47:
 634:Generated_Source\PSoC5/cyfitter_cfg.c **** 		{
 676              		.loc 1 634 0 is_stmt 0 discriminator 1
 677 0054 012C     		cmp	r4, #1
 678 0056 EED9     		bls	.L48
 641:Generated_Source\PSoC5/cyfitter_cfg.c **** 		}
 642:Generated_Source\PSoC5/cyfitter_cfg.c **** 
 643:Generated_Source\PSoC5/cyfitter_cfg.c **** 		cfg_write_bytes32(cy_cfg_addr_table, cy_cfg_data_table);
 679              		.loc 1 643 0 is_stmt 1
 680 0058 2949     		ldr	r1, .L50+8
 681 005a 4FF09040 		mov	r0, #1207959552
 682 005e FFF7FEFF 		bl	cfg_write_bytes32
ARM GAS  C:\Users\shiyu\AppData\Local\Temp\ccAVpJNO.s 			page 25


 683              	.LVL63:
 644:Generated_Source\PSoC5/cyfitter_cfg.c **** 
 645:Generated_Source\PSoC5/cyfitter_cfg.c **** 		/* Enable digital routing */
 646:Generated_Source\PSoC5/cyfitter_cfg.c **** 		CY_SET_XTND_REG8((void CYFAR *)CYREG_BCTL0_BANK_CTL, CY_GET_XTND_REG8((void CYFAR *)CYREG_BCTL0_B
 684              		.loc 1 646 0
 685 0062 284A     		ldr	r2, .L50+12
 686 0064 1378     		ldrb	r3, [r2]	@ zero_extendqisi2
 687 0066 43F00203 		orr	r3, r3, #2
 688 006a 1370     		strb	r3, [r2]
 647:Generated_Source\PSoC5/cyfitter_cfg.c **** 		CY_SET_XTND_REG8((void CYFAR *)CYREG_BCTL1_BANK_CTL, CY_GET_XTND_REG8((void CYFAR *)CYREG_BCTL1_B
 689              		.loc 1 647 0
 690 006c 1032     		adds	r2, r2, #16
 691 006e 1378     		ldrb	r3, [r2]	@ zero_extendqisi2
 692 0070 43F00203 		orr	r3, r3, #2
 693 0074 1370     		strb	r3, [r2]
 648:Generated_Source\PSoC5/cyfitter_cfg.c **** 
 649:Generated_Source\PSoC5/cyfitter_cfg.c **** 		/* Enable UDB array */
 650:Generated_Source\PSoC5/cyfitter_cfg.c **** 		CY_SET_XTND_REG8((void CYFAR *)CYREG_PM_ACT_CFG0, CY_GET_XTND_REG8((void CYFAR *)CYREG_PM_ACT_CFG
 694              		.loc 1 650 0
 695 0076 244C     		ldr	r4, .L50+16
 696              	.LVL64:
 697 0078 2378     		ldrb	r3, [r4]	@ zero_extendqisi2
 698 007a 43F04003 		orr	r3, r3, #64
 699 007e 2370     		strb	r3, [r4]
 651:Generated_Source\PSoC5/cyfitter_cfg.c **** 		CY_SET_XTND_REG8((void CYFAR *)CYREG_PM_AVAIL_CR2, CY_GET_XTND_REG8((void CYFAR *)CYREG_PM_AVAIL_
 700              		.loc 1 651 0
 701 0080 A2F58632 		sub	r2, r2, #68608
 702 0084 513A     		subs	r2, r2, #81
 703 0086 1378     		ldrb	r3, [r2]	@ zero_extendqisi2
 704 0088 43F01003 		orr	r3, r3, #16
 705 008c 1370     		strb	r3, [r2]
 706              	.LBE3:
 652:Generated_Source\PSoC5/cyfitter_cfg.c **** 	}
 653:Generated_Source\PSoC5/cyfitter_cfg.c **** 
 654:Generated_Source\PSoC5/cyfitter_cfg.c **** 
 655:Generated_Source\PSoC5/cyfitter_cfg.c **** 	/* Perform second pass device configuration. These items must be configured in specific order afte
 656:Generated_Source\PSoC5/cyfitter_cfg.c **** 	CYCONFIGCPY((void CYFAR *)(CYREG_PRT0_DM0), (const void CYFAR *)(BS_IOPINS0_0_VAL), 8u);
 707              		.loc 1 656 0
 708 008e 0822     		movs	r2, #8
 709 0090 1E49     		ldr	r1, .L50+20
 710 0092 1F48     		ldr	r0, .L50+24
 711 0094 FFF7FEFF 		bl	CYCONFIGCPY
 712              	.LVL65:
 657:Generated_Source\PSoC5/cyfitter_cfg.c **** 	CYCONFIGCPY((void CYFAR *)(CYREG_PRT12_DR), (const void CYFAR *)(BS_IOPINS0_7_VAL), 10u);
 713              		.loc 1 657 0
 714 0098 0A22     		movs	r2, #10
 715 009a 1E49     		ldr	r1, .L50+28
 716 009c 1E48     		ldr	r0, .L50+32
 717 009e FFF7FEFF 		bl	CYCONFIGCPY
 718              	.LVL66:
 658:Generated_Source\PSoC5/cyfitter_cfg.c **** 	CYCONFIGCPY((void CYFAR *)(CYREG_PRT15_DM0), (const void CYFAR *)(BS_IOPINS0_8_VAL), 8u);
 719              		.loc 1 658 0
 720 00a2 0822     		movs	r2, #8
 721 00a4 1D49     		ldr	r1, .L50+36
 722 00a6 1E48     		ldr	r0, .L50+40
 723 00a8 FFF7FEFF 		bl	CYCONFIGCPY
 724              	.LVL67:
ARM GAS  C:\Users\shiyu\AppData\Local\Temp\ccAVpJNO.s 			page 26


 659:Generated_Source\PSoC5/cyfitter_cfg.c **** 	CYCONFIGCPY((void CYFAR *)(CYREG_PRT1_DM0), (const void CYFAR *)(BS_IOPINS0_1_VAL), 8u);
 725              		.loc 1 659 0
 726 00ac 0822     		movs	r2, #8
 727 00ae 1D49     		ldr	r1, .L50+44
 728 00b0 1D48     		ldr	r0, .L50+48
 729 00b2 FFF7FEFF 		bl	CYCONFIGCPY
 730              	.LVL68:
 660:Generated_Source\PSoC5/cyfitter_cfg.c **** 	CYCONFIGCPY((void CYFAR *)(CYREG_PRT2_DM0), (const void CYFAR *)(BS_IOPINS0_2_VAL), 8u);
 731              		.loc 1 660 0
 732 00b6 0822     		movs	r2, #8
 733 00b8 1C49     		ldr	r1, .L50+52
 734 00ba 1D48     		ldr	r0, .L50+56
 735 00bc FFF7FEFF 		bl	CYCONFIGCPY
 736              	.LVL69:
 661:Generated_Source\PSoC5/cyfitter_cfg.c **** 	CYCONFIGCPY((void CYFAR *)(CYREG_PRT3_DM0), (const void CYFAR *)(BS_IOPINS0_3_VAL), 8u);
 737              		.loc 1 661 0
 738 00c0 0822     		movs	r2, #8
 739 00c2 1C49     		ldr	r1, .L50+60
 740 00c4 1C48     		ldr	r0, .L50+64
 741 00c6 FFF7FEFF 		bl	CYCONFIGCPY
 742              	.LVL70:
 662:Generated_Source\PSoC5/cyfitter_cfg.c **** 	/* Switch Boost to the precision bandgap reference from its internal reference */
 663:Generated_Source\PSoC5/cyfitter_cfg.c **** 	CY_SET_REG8((void CYXDATA *)CYREG_BOOST_CR2, (CY_GET_REG8((void CYXDATA *)CYREG_BOOST_CR2) | 0x08u
 743              		.loc 1 663 0
 744 00ca 1C4A     		ldr	r2, .L50+68
 745 00cc 1378     		ldrb	r3, [r2]	@ zero_extendqisi2
 746 00ce 43F00803 		orr	r3, r3, #8
 747 00d2 1370     		strb	r3, [r2]
 664:Generated_Source\PSoC5/cyfitter_cfg.c **** 
 665:Generated_Source\PSoC5/cyfitter_cfg.c **** 	/* Set Flash Cycles based on max possible frequency in case a glitch occurs during ClockSetup(). *
 666:Generated_Source\PSoC5/cyfitter_cfg.c **** 	CY_SET_XTND_REG8((void CYFAR *)(CYREG_CACHE_CC_CTL), (((CYDEV_INSTRUCT_CACHE_ENABLED) != 0) ? 0x61
 748              		.loc 1 666 0
 749 00d4 1A4D     		ldr	r5, .L50+72
 750 00d6 6123     		movs	r3, #97
 751 00d8 2B70     		strb	r3, [r5]
 667:Generated_Source\PSoC5/cyfitter_cfg.c **** 	/* Setup clocks based on selections from Clock DWR */
 668:Generated_Source\PSoC5/cyfitter_cfg.c **** 	ClockSetup();
 752              		.loc 1 668 0
 753 00da FFF7FEFF 		bl	ClockSetup
 754              	.LVL71:
 669:Generated_Source\PSoC5/cyfitter_cfg.c **** 	/* Set Flash Cycles based on newly configured 24.00MHz Bus Clock. */
 670:Generated_Source\PSoC5/cyfitter_cfg.c **** 	CY_SET_XTND_REG8((void CYFAR *)(CYREG_CACHE_CC_CTL), (((CYDEV_INSTRUCT_CACHE_ENABLED) != 0) ? 0x81
 755              		.loc 1 670 0
 756 00de 8123     		movs	r3, #129
 757 00e0 2B70     		strb	r3, [r5]
 671:Generated_Source\PSoC5/cyfitter_cfg.c **** 	CY_SET_XTND_REG8((void CYFAR *)(CYREG_PANTHER_WAITPIPE), 0x01u);
 758              		.loc 1 671 0
 759 00e2 0122     		movs	r2, #1
 760 00e4 174B     		ldr	r3, .L50+76
 761 00e6 1A70     		strb	r2, [r3]
 672:Generated_Source\PSoC5/cyfitter_cfg.c **** 
 673:Generated_Source\PSoC5/cyfitter_cfg.c **** 	/* Perform basic analog initialization to defaults */
 674:Generated_Source\PSoC5/cyfitter_cfg.c **** 	AnalogSetDefault();
 762              		.loc 1 674 0
 763 00e8 FFF7FEFF 		bl	AnalogSetDefault
 764              	.LVL72:
 675:Generated_Source\PSoC5/cyfitter_cfg.c **** 
ARM GAS  C:\Users\shiyu\AppData\Local\Temp\ccAVpJNO.s 			page 27


 676:Generated_Source\PSoC5/cyfitter_cfg.c **** 	/* Configure alternate active mode */
 677:Generated_Source\PSoC5/cyfitter_cfg.c **** 	CYCONFIGCPY((void CYFAR *)CYDEV_PM_STBY_BASE, (const void CYFAR *)CYDEV_PM_ACT_BASE, 14u);
 765              		.loc 1 677 0
 766 00ec 0E22     		movs	r2, #14
 767 00ee 2146     		mov	r1, r4
 768 00f0 1548     		ldr	r0, .L50+80
 769 00f2 FFF7FEFF 		bl	CYCONFIGCPY
 770              	.LVL73:
 771 00f6 38BD     		pop	{r3, r4, r5, pc}
 772              	.L51:
 773              		.align	2
 774              	.L50:
 775 00f8 E8460040 		.word	1073759976
 776 00fc 00000000 		.word	.LANCHOR0
 777 0100 50000048 		.word	1207959632
 778 0104 03500140 		.word	1073827843
 779 0108 A0430040 		.word	1073759136
 780 010c 40030048 		.word	1207960384
 781 0110 02510040 		.word	1073762562
 782 0114 48030048 		.word	1207960392
 783 0118 C0510040 		.word	1073762752
 784 011c 54030048 		.word	1207960404
 785 0120 F2510040 		.word	1073762802
 786 0124 5C030048 		.word	1207960412
 787 0128 12510040 		.word	1073762578
 788 012c 64030048 		.word	1207960420
 789 0130 22510040 		.word	1073762594
 790 0134 6C030048 		.word	1207960428
 791 0138 32510040 		.word	1073762610
 792 013c 22430040 		.word	1073759010
 793 0140 00480040 		.word	1073760256
 794 0144 04000840 		.word	1074266116
 795 0148 B0430040 		.word	1073759152
 796              		.cfi_endproc
 797              	.LFE10:
 798              		.size	cyfitter_cfg, .-cyfitter_cfg
 799              		.global	AMux__maskTable
 800              		.global	AMux__addrTable
 801              		.section	.rodata
 802              		.align	2
 803              		.set	.LANCHOR0,. + 0
 804              		.type	AMux__addrTable, %object
 805              		.size	AMux__addrTable, 536
 806              	AMux__addrTable:
 807 0000 0C510040 		.word	1073762572
 808 0004 24430040 		.word	1073759012
 809 0008 2D510040 		.word	1073762605
 810 000c 24430040 		.word	1073759012
 811 0010 0C510040 		.word	1073762572
 812 0014 24430040 		.word	1073759012
 813 0018 2D510040 		.word	1073762605
 814 001c 24430040 		.word	1073759012
 815 0020 0C510040 		.word	1073762572
 816 0024 24430040 		.word	1073759012
 817 0028 2D510040 		.word	1073762605
 818 002c 24430040 		.word	1073759012
 819 0030 0C510040 		.word	1073762572
ARM GAS  C:\Users\shiyu\AppData\Local\Temp\ccAVpJNO.s 			page 28


 820 0034 24430040 		.word	1073759012
 821 0038 2D510040 		.word	1073762605
 822 003c 24430040 		.word	1073759012
 823 0040 0C510040 		.word	1073762572
 824 0044 24430040 		.word	1073759012
 825 0048 2D510040 		.word	1073762605
 826 004c 24430040 		.word	1073759012
 827 0050 0C510040 		.word	1073762572
 828 0054 24430040 		.word	1073759012
 829 0058 2D510040 		.word	1073762605
 830 005c 24430040 		.word	1073759012
 831 0060 0C510040 		.word	1073762572
 832 0064 24430040 		.word	1073759012
 833 0068 2D510040 		.word	1073762605
 834 006c 24430040 		.word	1073759012
 835 0070 0C510040 		.word	1073762572
 836 0074 24430040 		.word	1073759012
 837 0078 2D510040 		.word	1073762605
 838 007c 24430040 		.word	1073759012
 839 0080 1D510040 		.word	1073762589
 840 0084 24430040 		.word	1073759012
 841 0088 2D510040 		.word	1073762605
 842 008c 24430040 		.word	1073759012
 843 0090 1D510040 		.word	1073762589
 844 0094 285B0040 		.word	1073765160
 845 0098 2D510040 		.word	1073762605
 846 009c 24430040 		.word	1073759012
 847 00a0 1D510040 		.word	1073762589
 848 00a4 24430040 		.word	1073759012
 849 00a8 2D510040 		.word	1073762605
 850 00ac 24430040 		.word	1073759012
 851 00b0 1D510040 		.word	1073762589
 852 00b4 24430040 		.word	1073759012
 853 00b8 2D510040 		.word	1073762605
 854 00bc 24430040 		.word	1073759012
 855 00c0 1D510040 		.word	1073762589
 856 00c4 285B0040 		.word	1073765160
 857 00c8 2D510040 		.word	1073762605
 858 00cc 24430040 		.word	1073759012
 859 00d0 2D510040 		.word	1073762605
 860 00d4 24430040 		.word	1073759012
 861 00d8 2D510040 		.word	1073762605
 862 00dc 24430040 		.word	1073759012
 863 00e0 2C510040 		.word	1073762604
 864 00e4 24430040 		.word	1073759012
 865 00e8 2D510040 		.word	1073762605
 866 00ec 24430040 		.word	1073759012
 867 00f0 2D510040 		.word	1073762605
 868 00f4 24430040 		.word	1073759012
 869 00f8 2D510040 		.word	1073762605
 870 00fc 24430040 		.word	1073759012
 871 0100 2C510040 		.word	1073762604
 872 0104 24430040 		.word	1073759012
 873 0108 2D510040 		.word	1073762605
 874 010c 24430040 		.word	1073759012
 875 0110 FD510040 		.word	1073762813
 876 0114 24430040 		.word	1073759012
ARM GAS  C:\Users\shiyu\AppData\Local\Temp\ccAVpJNO.s 			page 29


 877 0118 2D510040 		.word	1073762605
 878 011c 24430040 		.word	1073759012
 879 0120 2D510040 		.word	1073762605
 880 0124 24430040 		.word	1073759012
 881 0128 2D510040 		.word	1073762605
 882 012c 24430040 		.word	1073759012
 883 0130 2C510040 		.word	1073762604
 884 0134 24430040 		.word	1073759012
 885 0138 2D510040 		.word	1073762605
 886 013c 24430040 		.word	1073759012
 887 0140 2C510040 		.word	1073762604
 888 0144 24430040 		.word	1073759012
 889 0148 2D510040 		.word	1073762605
 890 014c 24430040 		.word	1073759012
 891 0150 3D510040 		.word	1073762621
 892 0154 24430040 		.word	1073759012
 893 0158 2D510040 		.word	1073762605
 894 015c 24430040 		.word	1073759012
 895 0160 3D510040 		.word	1073762621
 896 0164 24430040 		.word	1073759012
 897 0168 2D510040 		.word	1073762605
 898 016c 24430040 		.word	1073759012
 899 0170 3D510040 		.word	1073762621
 900 0174 24430040 		.word	1073759012
 901 0178 2D510040 		.word	1073762605
 902 017c 24430040 		.word	1073759012
 903 0180 3D510040 		.word	1073762621
 904 0184 24430040 		.word	1073759012
 905 0188 2D510040 		.word	1073762605
 906 018c 24430040 		.word	1073759012
 907 0190 3D510040 		.word	1073762621
 908 0194 24430040 		.word	1073759012
 909 0198 2D510040 		.word	1073762605
 910 019c 24430040 		.word	1073759012
 911 01a0 3D510040 		.word	1073762621
 912 01a4 24430040 		.word	1073759012
 913 01a8 2D510040 		.word	1073762605
 914 01ac 24430040 		.word	1073759012
 915 01b0 3D510040 		.word	1073762621
 916 01b4 24430040 		.word	1073759012
 917 01b8 2D510040 		.word	1073762605
 918 01bc 24430040 		.word	1073759012
 919 01c0 3D510040 		.word	1073762621
 920 01c4 24430040 		.word	1073759012
 921 01c8 2D510040 		.word	1073762605
 922 01cc 24430040 		.word	1073759012
 923 01d0 FD510040 		.word	1073762813
 924 01d4 24430040 		.word	1073759012
 925 01d8 2D510040 		.word	1073762605
 926 01dc 24430040 		.word	1073759012
 927 01e0 FD510040 		.word	1073762813
 928 01e4 24430040 		.word	1073759012
 929 01e8 2D510040 		.word	1073762605
 930 01ec 24430040 		.word	1073759012
 931 01f0 FD510040 		.word	1073762813
 932 01f4 24430040 		.word	1073759012
 933 01f8 2D510040 		.word	1073762605
ARM GAS  C:\Users\shiyu\AppData\Local\Temp\ccAVpJNO.s 			page 30


 934 01fc 24430040 		.word	1073759012
 935 0200 FD510040 		.word	1073762813
 936 0204 24430040 		.word	1073759012
 937 0208 2D510040 		.word	1073762605
 938 020c 24430040 		.word	1073759012
 939 0210 FD510040 		.word	1073762813
 940 0214 24430040 		.word	1073759012
 941              		.type	AMux__maskTable, %object
 942              		.size	AMux__maskTable, 134
 943              	AMux__maskTable:
 944 0218 01       		.byte	1
 945 0219 00       		.byte	0
 946 021a 10       		.byte	16
 947 021b 00       		.byte	0
 948 021c 02       		.byte	2
 949 021d 00       		.byte	0
 950 021e 10       		.byte	16
 951 021f 00       		.byte	0
 952 0220 04       		.byte	4
 953 0221 00       		.byte	0
 954 0222 10       		.byte	16
 955 0223 00       		.byte	0
 956 0224 08       		.byte	8
 957 0225 00       		.byte	0
 958 0226 10       		.byte	16
 959 0227 00       		.byte	0
 960 0228 10       		.byte	16
 961 0229 00       		.byte	0
 962 022a 10       		.byte	16
 963 022b 00       		.byte	0
 964 022c 20       		.byte	32
 965 022d 00       		.byte	0
 966 022e 10       		.byte	16
 967 022f 00       		.byte	0
 968 0230 40       		.byte	64
 969 0231 00       		.byte	0
 970 0232 10       		.byte	16
 971 0233 00       		.byte	0
 972 0234 80       		.byte	-128
 973 0235 00       		.byte	0
 974 0236 10       		.byte	16
 975 0237 00       		.byte	0
 976 0238 04       		.byte	4
 977 0239 00       		.byte	0
 978 023a 10       		.byte	16
 979 023b 00       		.byte	0
 980 023c 10       		.byte	16
 981 023d 01       		.byte	1
 982 023e 10       		.byte	16
 983 023f 00       		.byte	0
 984 0240 20       		.byte	32
 985 0241 00       		.byte	0
 986 0242 10       		.byte	16
 987 0243 00       		.byte	0
 988 0244 40       		.byte	64
 989 0245 00       		.byte	0
 990 0246 10       		.byte	16
ARM GAS  C:\Users\shiyu\AppData\Local\Temp\ccAVpJNO.s 			page 31


 991 0247 00       		.byte	0
 992 0248 80       		.byte	-128
 993 0249 08       		.byte	8
 994 024a 10       		.byte	16
 995 024b 00       		.byte	0
 996 024c 01       		.byte	1
 997 024d 00       		.byte	0
 998 024e 10       		.byte	16
 999 024f 00       		.byte	0
 1000 0250 04       		.byte	4
 1001 0251 00       		.byte	0
 1002 0252 10       		.byte	16
 1003 0253 00       		.byte	0
 1004 0254 02       		.byte	2
 1005 0255 00       		.byte	0
 1006 0256 10       		.byte	16
 1007 0257 00       		.byte	0
 1008 0258 08       		.byte	8
 1009 0259 00       		.byte	0
 1010 025a 10       		.byte	16
 1011 025b 00       		.byte	0
 1012 025c 20       		.byte	32
 1013 025d 00       		.byte	0
 1014 025e 10       		.byte	16
 1015 025f 00       		.byte	0
 1016 0260 20       		.byte	32
 1017 0261 00       		.byte	0
 1018 0262 10       		.byte	16
 1019 0263 00       		.byte	0
 1020 0264 40       		.byte	64
 1021 0265 00       		.byte	0
 1022 0266 10       		.byte	16
 1023 0267 00       		.byte	0
 1024 0268 80       		.byte	-128
 1025 0269 00       		.byte	0
 1026 026a 10       		.byte	16
 1027 026b 00       		.byte	0
 1028 026c 01       		.byte	1
 1029 026d 00       		.byte	0
 1030 026e 10       		.byte	16
 1031 026f 00       		.byte	0
 1032 0270 02       		.byte	2
 1033 0271 00       		.byte	0
 1034 0272 10       		.byte	16
 1035 0273 00       		.byte	0
 1036 0274 04       		.byte	4
 1037 0275 00       		.byte	0
 1038 0276 10       		.byte	16
 1039 0277 00       		.byte	0
 1040 0278 08       		.byte	8
 1041 0279 00       		.byte	0
 1042 027a 10       		.byte	16
 1043 027b 00       		.byte	0
 1044 027c 10       		.byte	16
 1045 027d 00       		.byte	0
 1046 027e 10       		.byte	16
 1047 027f 00       		.byte	0
ARM GAS  C:\Users\shiyu\AppData\Local\Temp\ccAVpJNO.s 			page 32


 1048 0280 20       		.byte	32
 1049 0281 00       		.byte	0
 1050 0282 10       		.byte	16
 1051 0283 00       		.byte	0
 1052 0284 40       		.byte	64
 1053 0285 00       		.byte	0
 1054 0286 10       		.byte	16
 1055 0287 00       		.byte	0
 1056 0288 80       		.byte	-128
 1057 0289 00       		.byte	0
 1058 028a 10       		.byte	16
 1059 028b 00       		.byte	0
 1060 028c 01       		.byte	1
 1061 028d 00       		.byte	0
 1062 028e 10       		.byte	16
 1063 028f 00       		.byte	0
 1064 0290 02       		.byte	2
 1065 0291 00       		.byte	0
 1066 0292 10       		.byte	16
 1067 0293 00       		.byte	0
 1068 0294 04       		.byte	4
 1069 0295 00       		.byte	0
 1070 0296 10       		.byte	16
 1071 0297 00       		.byte	0
 1072 0298 08       		.byte	8
 1073 0299 00       		.byte	0
 1074 029a 10       		.byte	16
 1075 029b 00       		.byte	0
 1076 029c 10       		.byte	16
 1077 029d 00       		.byte	0
 1078 029e 0000     		.space	2
 1079              		.type	cfg_memset_list.5023, %object
 1080              		.size	cfg_memset_list.5023, 48
 1081              	cfg_memset_list.5023:
 1082 02a0 004F0040 		.word	1073762048
 1083 02a4 0C00     		.short	12
 1084 02a6 40510040 		.4byte	1073762624
 1085 02aa 3000     		.short	48
 1086 02ac 00000140 		.word	1073807360
 1087 02b0 0010     		.short	4096
 1088 02b2 00140140 		.4byte	1073812480
 1089 02b6 0004     		.short	1024
 1090 02b8 80180140 		.word	1073813632
 1091 02bc 8003     		.short	896
 1092 02be 00400140 		.4byte	1073823744
 1093 02c2 000A     		.short	2560
 1094 02c4 004C0140 		.word	1073826816
 1095 02c8 0002     		.short	512
 1096 02ca 00500140 		.4byte	1073827840
 1097 02ce 2000     		.short	32
 1098              		.type	cfg_memcpy_list.5024, %object
 1099              		.size	cfg_memcpy_list.5024, 20
 1100              	cfg_memcpy_list.5024:
 1101 02d0 60520040 		.word	1073762912
 1102 02d4 B8020048 		.word	1207960248
 1103 02d8 0600     		.short	6
 1104 02da 00180140 		.4byte	1073813504
ARM GAS  C:\Users\shiyu\AppData\Local\Temp\ccAVpJNO.s 			page 33


 1105 02de C0020048 		.4byte	1207960256
 1106 02e2 8000     		.short	128
 1107              		.text
 1108              	.Letext0:
 1109              		.file 2 "c:\\program files (x86)\\cypress\\psoc creator\\4.2\\psoc creator\\import\\gnu\\arm\\5.4.
 1110              		.file 3 "Generated_Source\\PSoC5\\cytypes.h"
 1111              		.file 4 "Generated_Source\\PSoC5\\CyLib.h"