ARM GAS  C:\Users\shiyu\AppData\Local\Temp\ccQNMXHz.s 			page 1


   1              		.syntax unified
   2              		.cpu cortex-m3
   3              		.fpu softvfp
   4              		.eabi_attribute 20, 1
   5              		.eabi_attribute 21, 1
   6              		.eabi_attribute 23, 3
   7              		.eabi_attribute 24, 1
   8              		.eabi_attribute 25, 1
   9              		.eabi_attribute 26, 1
  10              		.eabi_attribute 30, 1
  11              		.eabi_attribute 34, 1
  12              		.eabi_attribute 18, 4
  13              		.thumb
  14              		.syntax unified
  15              		.file	"main.c"
  16              		.text
  17              	.Ltext0:
  18              		.cfi_sections	.debug_frame
  19              		.section	.text.ISR_CAN,"ax",%progbits
  20              		.align	2
  21              		.global	ISR_CAN
  22              		.thumb
  23              		.thumb_func
  24              		.type	ISR_CAN, %function
  25              	ISR_CAN:
  26              	.LFB67:
  27              		.file 1 "main.c"
   1:main.c        **** /* ========================================
   2:main.c        ****  *
   3:main.c        ****  * Copyright YOUR COMPANY, THE YEAR
   4:main.c        ****  * All Rights Reserved
   5:main.c        ****  * UNPUBLISHED, LICENSED SOFTWARE.
   6:main.c        ****  *
   7:main.c        ****  * CONFIDENTIAL AND PROPRIETARY INFORMATION
   8:main.c        ****  * WHICH IS THE PROPERTY OF your company.
   9:main.c        ****  *
  10:main.c        ****  * ========================================
  11:main.c        **** */
  12:main.c        **** #include <project.h>
  13:main.c        **** #include <stdio.h>
  14:main.c        **** #include <math.h>
  15:main.c        **** 
  16:main.c        **** #define MODE_NORMAL 0
  17:main.c        **** #define MODE_CH 1
  18:main.c        **** 
  19:main.c        **** #define DUMMY 1.0
  20:main.c        **** 
  21:main.c        **** #define HIGH 1u
  22:main.c        **** #define LOW 0u
  23:main.c        **** 
  24:main.c        **** /* Switch debounce delay in milliseconds */
  25:main.c        **** #define SWITCH_DEBOUNCE_UNIT (1u)
  26:main.c        **** 
  27:main.c        **** /* Number of debounce units to count delay, before consider that switch is pressed */
  28:main.c        **** #define SWITCH_DEBOUNCE_PERIOD (10u)
  29:main.c        **** 
  30:main.c        **** #define DATA_SIZE (6u)
ARM GAS  C:\Users\shiyu\AppData\Local\Temp\ccQNMXHz.s 			page 2


  31:main.c        **** 
  32:main.c        **** /* Switch state defines */
  33:main.c        **** #define SWITCH_PRESSED (0u)
  34:main.c        **** #define SWITCH_RELEASED (1u)
  35:main.c        **** 
  36:main.c        **** /* Function prototypes */
  37:main.c        **** 
  38:main.c        **** CY_ISR_PROTO(ISR_CAN);
  39:main.c        **** 
  40:main.c        **** /* Global variable used to store switch state */
  41:main.c        **** uint8 switchState = SWITCH_RELEASED;
  42:main.c        **** //String used to output value to UART
  43:main.c        **** char outputstring[50];
  44:main.c        **** 
  45:main.c        **** float max_temp = 0;
  46:main.c        **** float min_temp = 15;
  47:main.c        **** float avg_temp = 0;
  48:main.c        **** 
  49:main.c        **** float Temperature;
  50:main.c        **** 
  51:main.c        **** /* Global variable used to store ISR flag */
  52:main.c        **** volatile uint8 isrFlag = 0u;
  53:main.c        **** 
  54:main.c        **** /*******************************************************************************
  55:main.c        **** * Function Name: main
  56:main.c        **** ********************************************************************************
  57:main.c        **** 
  58:main.c        **** *
  59:main.c        **** *******************************************************************************/
  60:main.c        **** 
  61:main.c        **** void UART_STRING(char my_string[], char outputstring[], int ch, float voltage, int mode)
  62:main.c        **** {
  63:main.c        ****     if (mode == MODE_NORMAL)
  64:main.c        ****     {
  65:main.c        ****         sprintf(outputstring, my_string);
  66:main.c        ****         UART_1_PutString(outputstring); // print value to UART
  67:main.c        ****         UART_1_PutString("\r\n");
  68:main.c        ****     }
  69:main.c        ****     if (mode == MODE_CH)
  70:main.c        ****     {
  71:main.c        ****         sprintf(outputstring, "Channel %d is %6.3f C/Degree", ch, voltage);
  72:main.c        ****         UART_1_PutString(outputstring); // print value to UART
  73:main.c        ****         UART_1_PutString("\r\n");
  74:main.c        ****     }
  75:main.c        **** }
  76:main.c        **** 
  77:main.c        **** CY_ISR(Timer_Int_Handler)
  78:main.c        **** {
  79:main.c        ****     // LED_Write(1u);
  80:main.c        ****     //The CAN message needed to be sent every 100ms, so add an timer interupt to execute this
  81:main.c        ****     //Func
  82:main.c        ****     int num_ther = 2u;
  83:main.c        ****     int hi_ind = 02u;
  84:main.c        ****     int low_ind = 01u;
  85:main.c        ****     //Byte 1: Thermistor Module Number
  86:main.c        ****     CAN_TX_DATA_BYTE1(CAN_TX_MAILBOX_ADCdata) = 0u; //8 bit 0 in binary
  87:main.c        ****     //Byte 2:
ARM GAS  C:\Users\shiyu\AppData\Local\Temp\ccQNMXHz.s 			page 3


  88:main.c        ****     CAN_TX_DATA_BYTE2(CAN_TX_MAILBOX_ADCdata) = (int)min_temp; //int8_t type is the signed 8 bit in
  89:main.c        ****     //I am casting my flost value to an 8 bit signed integer
  90:main.c        ****     //Byte 3:
  91:main.c        ****     CAN_TX_DATA_BYTE3(CAN_TX_MAILBOX_ADCdata) = (int)max_temp;
  92:main.c        ****     //Byte 4:
  93:main.c        ****     CAN_TX_DATA_BYTE4(CAN_TX_MAILBOX_ADCdata) = (int)avg_temp;
  94:main.c        ****     //Byte 5: Number of thermistors enabled： we have 34 here
  95:main.c        ****     CAN_TX_DATA_BYTE5(CAN_TX_MAILBOX_ADCdata) = num_ther;
  96:main.c        ****     //Byte 6: Highest thermistor ID on the module: 33
  97:main.c        ****     CAN_TX_DATA_BYTE6(CAN_TX_MAILBOX_ADCdata) = low_ind;
  98:main.c        ****     //Byte 7: Lowest thermistor ID on the module: 0
  99:main.c        ****     CAN_TX_DATA_BYTE7(CAN_TX_MAILBOX_ADCdata) = hi_ind;
 100:main.c        ****     //the last bit sums all bit + Checksum 8-bit (sum of all bytes +ID + length)
 101:main.c        ****     // new algo
 102:main.c        ****     char lastbyte = (0x39 + 8 + 0 + (int8_t)min_temp + (int8_t)max_temp + (int8_t)avg_temp + num_th
 103:main.c        ****     //char lastbyte = ((0x1839f380 & 0xFF) + 8 + 0 + (int8_t)min_temp + (int8_t)max_temp + (int8_t)
 104:main.c        ****     //Byte 8: Checksum
 105:main.c        ****     //0x39 + 8 + 0xF + 0x1E + 0x19 + 0x2 + 0x1 + 0x2 = 0x8C (0x8C being the Checksum value)
 106:main.c        ****     CAN_TX_DATA_BYTE8(CAN_TX_MAILBOX_ADCdata) = lastbyte;
 107:main.c        **** 
 108:main.c        ****     //Send CAN message
 109:main.c        ****     CAN_SendMsgADCdata();
 110:main.c        **** 
 111:main.c        ****     //sprintf(outputstring, "B1: %x, B2: %x, B3: %x, B4: %x, B5: %x, B6: %x, B7: %x, Checksum: %x",
 112:main.c        ****     //lastbyte);
 113:main.c        ****     UART_1_PutString(outputstring); // print value to UART
 114:main.c        ****     UART_1_PutString("\r\n");
 115:main.c        **** 
 116:main.c        ****     //LED_Write(0u);,
 117:main.c        **** }
 118:main.c        **** 
 119:main.c        **** int main()
 120:main.c        **** {
 121:main.c        ****     //int16 output;
 122:main.c        ****     //char8 txData[DATA_SIZE];
 123:main.c        **** 
 124:main.c        ****     CyGlobalIntEnable; /* Enable global interrupts. */
 125:main.c        **** 
 126:main.c        ****     /* Start services */
 127:main.c        ****     ADC_SAR_1_Start();
 128:main.c        ****     UART_1_Start();
 129:main.c        ****     CAN_Start();
 130:main.c        ****     AMux_Init();
 131:main.c        ****     AMux_Start();
 132:main.c        ****     //Interrupt
 133:main.c        ****     Timer_Start();
 134:main.c        ****     Timer_Int_StartEx(Timer_Int_Handler);
 135:main.c        **** 
 136:main.c        ****     /* Set CAN interrupt handler to local routine */
 137:main.c        ****     CyIntSetVector(CAN_ISR_NUMBER, ISR_CAN);
 138:main.c        **** 
 139:main.c        ****     /*Declear Main function local variables*/
 140:main.c        **** 
 141:main.c        ****     float voltage = 0; //voltage reading
 142:main.c        ****                        //    uint16 counts = 0;     // ADC Counts
 143:main.c        ****     uint16 ch;         // Channels of Amux
 144:main.c        ****     uint16 resVolts;
ARM GAS  C:\Users\shiyu\AppData\Local\Temp\ccQNMXHz.s 			page 4


 145:main.c        ****     int refresh_count = 0;
 146:main.c        ****     
 147:main.c        ****     
 148:main.c        ****     UART_STRING("Starting now", outputstring, (int)DUMMY, DUMMY, MODE_NORMAL);
 149:main.c        ****     for (;;)
 150:main.c        ****     {
 151:main.c        **** 
 152:main.c        ****         if (refresh_count==5){
 153:main.c        ****             sprintf(outputstring, "Refreshed, count = %d",refresh_count );
 154:main.c        ****             UART_1_PutString(outputstring); // print value to UART
 155:main.c        ****             UART_1_PutString("\r\n");
 156:main.c        ****             
 157:main.c        ****             refresh_count = 0;
 158:main.c        ****             max_temp = Temperature;
 159:main.c        ****             min_temp = Temperature;
 160:main.c        **** 
 161:main.c        ****         }
 162:main.c        **** 
 163:main.c        ****         for (ch = 0; ch < 67; ch++)
 164:main.c        ****         {
 165:main.c        **** 
 166:main.c        ****             AMux_Select(ch);
 167:main.c        ****             ADC_SAR_1_StartConvert();
 168:main.c        ****             //ADC_SAR_1_RETURN_STATUS is a system macro
 169:main.c        ****             while (!ADC_SAR_1_IsEndConversion(ADC_SAR_1_RETURN_STATUS))
 170:main.c        ****             {
 171:main.c        ****             }
 172:main.c        **** 
 173:main.c        ****             //do the conversion here
 174:main.c        ****             //take average of 5 readings
 175:main.c        ****             uint16 sum = 0;
 176:main.c        ****             for (int i = 0; i < 5; i++)
 177:main.c        ****             {
 178:main.c        ****                 sum = sum + ADC_SAR_1_GetResult16();
 179:main.c        ****             }
 180:main.c        ****             uint16 average = sum / 5;
 181:main.c        **** 
 182:main.c        ****             voltage = ADC_SAR_1_CountsTo_Volts(average);
 183:main.c        ****             resVolts = (uint16)voltage;
 184:main.c        **** 
 185:main.c        ****             //convert to tenmperature
 186:main.c        ****             //removed ch21-defected, ch53-empty
 187:main.c        ****             if ((ch % 2 != 0 || ch == 0))
 188:main.c        ****             { 
 189:main.c        ****                 if (ch!=21 && ch!=53){
 190:main.c        ****                 // only update on even number of channels
 191:main.c        ****                 Temperature = (-740.85) * powf(voltage, 5.0) + (7056.8) * powf(voltage, 4.0) + (-26
 192:main.c        **** //              BattTemp = -740.85 * bt5 + 7056.8 * bt4 - 26800 * bt3 + 50732 * bt2 - 47967 * bt1 +
 193:main.c        ****                 //uint16 u16Temperature = (uint16) Temperature;
 194:main.c        ****                 if ((Temperature > max_temp) && (Temperature<120))
 195:main.c        ****                 {
 196:main.c        ****                     max_temp = Temperature;
 197:main.c        ****                 }
 198:main.c        ****                 if ((Temperature < min_temp) && (Temperature>-40))
 199:main.c        ****                 {
 200:main.c        ****                     min_temp = Temperature;
 201:main.c        ****                 }
ARM GAS  C:\Users\shiyu\AppData\Local\Temp\ccQNMXHz.s 			page 5


 202:main.c        **** 
 203:main.c        ****                 avg_temp = (max_temp + min_temp) / 2.0;
 204:main.c        ****                 UART_STRING("Channel %d is %6.3f C Degree", outputstring, (int)ch, Temperature, MOD
 205:main.c        ****                 sprintf(outputstring, "max temp is %6.3f C/Degree", max_temp);
 206:main.c        ****                 UART_1_PutString(outputstring); // print value to UART
 207:main.c        ****                 UART_1_PutString("\r\n");
 208:main.c        ****                 sprintf(outputstring, "min temp is %6.3f C/Degree", min_temp);
 209:main.c        ****                 UART_1_PutString(outputstring); // print value to UART
 210:main.c        ****                 UART_1_PutString("\r\n");
 211:main.c        ****                 }
 212:main.c        ****             }
 213:main.c        **** 
 214:main.c        ****             CyDelay(100);
 215:main.c        ****             ADC_SAR_1_StopConvert();
 216:main.c        ****             //finished one channel
 217:main.c        ****         }
 218:main.c        ****         //finished all channels
 219:main.c        ****         refresh_count++;
 220:main.c        ****         UART_STRING("one interation", outputstring, (int)DUMMY, DUMMY, MODE_NORMAL);
 221:main.c        ****         //CyDelay(1000);
 222:main.c        ****     }
 223:main.c        **** }
 224:main.c        **** 
 225:main.c        **** /*******************************************************************************
 226:main.c        **** * Function Name: ISR_CAN
 227:main.c        **** ********************************************************************************
 228:main.c        **** *
 229:main.c        **** * Summary:
 230:main.c        **** *  This ISR is executed at a Receive Message event and set the isrFlag.
 231:main.c        **** *
 232:main.c        **** * Parameters:
 233:main.c        **** *  None.
 234:main.c        **** *
 235:main.c        **** * Return:
 236:main.c        **** *  None.
 237:main.c        **** *
 238:main.c        **** *******************************************************************************/
 239:main.c        **** CY_ISR(ISR_CAN)
 240:main.c        **** {
  28              		.loc 1 240 0
  29              		.cfi_startproc
  30              		@ args = 0, pretend = 0, frame = 0
  31              		@ frame_needed = 0, uses_anonymous_args = 0
  32              		@ link register save eliminated.
 241:main.c        ****     /* Clear Receive Message flag */
 242:main.c        ****     CAN_INT_SR_REG.byte[1u] = CAN_RX_MESSAGE_MASK;
  33              		.loc 1 242 0
  34 0000 1022     		movs	r2, #16
  35 0002 054B     		ldr	r3, .L2
  36 0004 5A70     		strb	r2, [r3, #1]
 243:main.c        **** 
 244:main.c        ****     /* Set the isrFlag */
 245:main.c        ****     isrFlag = 1u;
  37              		.loc 1 245 0
  38 0006 0122     		movs	r2, #1
  39 0008 044B     		ldr	r3, .L2+4
  40 000a 1A70     		strb	r2, [r3]
ARM GAS  C:\Users\shiyu\AppData\Local\Temp\ccQNMXHz.s 			page 6


 246:main.c        **** 
 247:main.c        ****     /* Acknowledges receipt of new message */
 248:main.c        ****     CAN_RX_ACK_MESSAGE(CAN_RX_MAILBOX_0);
  41              		.loc 1 248 0
  42 000c 044A     		ldr	r2, .L2+8
  43 000e 1378     		ldrb	r3, [r2]	@ zero_extendqisi2
  44 0010 43F00103 		orr	r3, r3, #1
  45 0014 1370     		strb	r3, [r2]
  46 0016 7047     		bx	lr
  47              	.L3:
  48              		.align	2
  49              	.L2:
  50 0018 00A00040 		.word	1073782784
  51 001c 00000000 		.word	.LANCHOR0
  52 0020 A0A00040 		.word	1073782944
  53              		.cfi_endproc
  54              	.LFE67:
  55              		.size	ISR_CAN, .-ISR_CAN
  56              		.global	__aeabi_f2iz
  57              		.section	.text.Timer_Int_Handler,"ax",%progbits
  58              		.align	2
  59              		.global	Timer_Int_Handler
  60              		.thumb
  61              		.thumb_func
  62              		.type	Timer_Int_Handler, %function
  63              	Timer_Int_Handler:
  64              	.LFB65:
  78:main.c        ****     // LED_Write(1u);
  65              		.loc 1 78 0
  66              		.cfi_startproc
  67              		@ args = 0, pretend = 0, frame = 0
  68              		@ frame_needed = 0, uses_anonymous_args = 0
  69 0000 2DE9F041 		push	{r4, r5, r6, r7, r8, lr}
  70              		.cfi_def_cfa_offset 24
  71              		.cfi_offset 4, -24
  72              		.cfi_offset 5, -20
  73              		.cfi_offset 6, -16
  74              		.cfi_offset 7, -12
  75              		.cfi_offset 8, -8
  76              		.cfi_offset 14, -4
  77              	.LVL0:
  86:main.c        ****     //Byte 2:
  78              		.loc 1 86 0
  79 0004 1B4C     		ldr	r4, .L6
  80 0006 0023     		movs	r3, #0
  81 0008 E372     		strb	r3, [r4, #11]
  88:main.c        ****     //I am casting my flost value to an 8 bit signed integer
  82              		.loc 1 88 0
  83 000a 1B4B     		ldr	r3, .L6+4
  84 000c 1D68     		ldr	r5, [r3]	@ float
  85 000e 2846     		mov	r0, r5
  86 0010 FFF7FEFF 		bl	__aeabi_f2iz
  87              	.LVL1:
  88 0014 C0B2     		uxtb	r0, r0
  89 0016 A072     		strb	r0, [r4, #10]
  91:main.c        ****     //Byte 4:
  90              		.loc 1 91 0
ARM GAS  C:\Users\shiyu\AppData\Local\Temp\ccQNMXHz.s 			page 7


  91 0018 184E     		ldr	r6, .L6+8
  92 001a 7768     		ldr	r7, [r6, #4]	@ float
  93 001c 3846     		mov	r0, r7
  94 001e FFF7FEFF 		bl	__aeabi_f2iz
  95              	.LVL2:
  96 0022 C0B2     		uxtb	r0, r0
  97 0024 6072     		strb	r0, [r4, #9]
  93:main.c        ****     //Byte 5: Number of thermistors enabled： we have 34 here
  98              		.loc 1 93 0
  99 0026 B668     		ldr	r6, [r6, #8]	@ float
 100 0028 3046     		mov	r0, r6
 101 002a FFF7FEFF 		bl	__aeabi_f2iz
 102              	.LVL3:
 103 002e C0B2     		uxtb	r0, r0
 104 0030 2072     		strb	r0, [r4, #8]
  95:main.c        ****     //Byte 6: Highest thermistor ID on the module: 33
 105              		.loc 1 95 0
 106 0032 0223     		movs	r3, #2
 107 0034 E373     		strb	r3, [r4, #15]
  97:main.c        ****     //Byte 7: Lowest thermistor ID on the module: 0
 108              		.loc 1 97 0
 109 0036 0122     		movs	r2, #1
 110 0038 A273     		strb	r2, [r4, #14]
  99:main.c        ****     //the last bit sums all bit + Checksum 8-bit (sum of all bytes +ID + length)
 111              		.loc 1 99 0
 112 003a 6373     		strb	r3, [r4, #13]
 102:main.c        ****     //char lastbyte = ((0x1839f380 & 0xFF) + 8 + 0 + (int8_t)min_temp + (int8_t)max_temp + (int8_t)
 113              		.loc 1 102 0
 114 003c 2846     		mov	r0, r5
 115 003e FFF7FEFF 		bl	__aeabi_f2iz
 116              	.LVL4:
 117 0042 4FFA80F8 		sxtb	r8, r0
 118 0046 3846     		mov	r0, r7
 119 0048 FFF7FEFF 		bl	__aeabi_f2iz
 120              	.LVL5:
 121 004c 45B2     		sxtb	r5, r0
 122 004e 3046     		mov	r0, r6
 123 0050 FFF7FEFF 		bl	__aeabi_f2iz
 124              	.LVL6:
 125 0054 40B2     		sxtb	r0, r0
 126 0056 4544     		add	r5, r5, r8
 127 0058 2844     		add	r0, r0, r5
 128 005a 4630     		adds	r0, r0, #70
 129 005c C0B2     		uxtb	r0, r0
 130              	.LVL7:
 106:main.c        **** 
 131              		.loc 1 106 0
 132 005e 2073     		strb	r0, [r4, #12]
 109:main.c        **** 
 133              		.loc 1 109 0
 134 0060 FFF7FEFF 		bl	CAN_SendMsgADCdata
 135              	.LVL8:
 113:main.c        ****     UART_1_PutString("\r\n");
 136              		.loc 1 113 0
 137 0064 0648     		ldr	r0, .L6+12
 138 0066 FFF7FEFF 		bl	UART_1_PutString
 139              	.LVL9:
ARM GAS  C:\Users\shiyu\AppData\Local\Temp\ccQNMXHz.s 			page 8


 114:main.c        **** 
 140              		.loc 1 114 0
 141 006a 0648     		ldr	r0, .L6+16
 142 006c FFF7FEFF 		bl	UART_1_PutString
 143              	.LVL10:
 144 0070 BDE8F081 		pop	{r4, r5, r6, r7, r8, pc}
 145              	.L7:
 146              		.align	2
 147              	.L6:
 148 0074 30A00040 		.word	1073782832
 149 0078 00000000 		.word	.LANCHOR1
 150 007c 00000000 		.word	.LANCHOR0
 151 0080 00000000 		.word	outputstring
 152 0084 00000000 		.word	.LC0
 153              		.cfi_endproc
 154              	.LFE65:
 155              		.size	Timer_Int_Handler, .-Timer_Int_Handler
 156              		.global	__aeabi_f2d
 157              		.section	.text.UART_STRING,"ax",%progbits
 158              		.align	2
 159              		.global	UART_STRING
 160              		.thumb
 161              		.thumb_func
 162              		.type	UART_STRING, %function
 163              	UART_STRING:
 164              	.LFB64:
  62:main.c        ****     if (mode == MODE_NORMAL)
 165              		.loc 1 62 0
 166              		.cfi_startproc
 167              		@ args = 4, pretend = 0, frame = 0
 168              		@ frame_needed = 0, uses_anonymous_args = 0
 169              	.LVL11:
 170 0000 F0B5     		push	{r4, r5, r6, r7, lr}
 171              		.cfi_def_cfa_offset 20
 172              		.cfi_offset 4, -20
 173              		.cfi_offset 5, -16
 174              		.cfi_offset 6, -12
 175              		.cfi_offset 7, -8
 176              		.cfi_offset 14, -4
 177 0002 83B0     		sub	sp, sp, #12
 178              		.cfi_def_cfa_offset 32
 179 0004 0D46     		mov	r5, r1
 180 0006 1646     		mov	r6, r2
 181 0008 1F46     		mov	r7, r3
 182 000a 089C     		ldr	r4, [sp, #32]
  63:main.c        ****     {
 183              		.loc 1 63 0
 184 000c 4CB9     		cbnz	r4, .L9
  65:main.c        ****         UART_1_PutString(outputstring); // print value to UART
 185              		.loc 1 65 0
 186 000e 0146     		mov	r1, r0
 187              	.LVL12:
 188 0010 2846     		mov	r0, r5
 189              	.LVL13:
 190 0012 FFF7FEFF 		bl	sprintf
 191              	.LVL14:
  66:main.c        ****         UART_1_PutString("\r\n");
ARM GAS  C:\Users\shiyu\AppData\Local\Temp\ccQNMXHz.s 			page 9


 192              		.loc 1 66 0
 193 0016 2846     		mov	r0, r5
 194 0018 FFF7FEFF 		bl	UART_1_PutString
 195              	.LVL15:
  67:main.c        ****     }
 196              		.loc 1 67 0
 197 001c 0B48     		ldr	r0, .L12
 198 001e FFF7FEFF 		bl	UART_1_PutString
 199              	.LVL16:
 200              	.L9:
  69:main.c        ****     {
 201              		.loc 1 69 0
 202 0022 012C     		cmp	r4, #1
 203 0024 0FD1     		bne	.L8
  71:main.c        ****         UART_1_PutString(outputstring); // print value to UART
 204              		.loc 1 71 0
 205 0026 3846     		mov	r0, r7
 206 0028 FFF7FEFF 		bl	__aeabi_f2d
 207              	.LVL17:
 208 002c CDE90001 		strd	r0, [sp]
 209 0030 3246     		mov	r2, r6
 210 0032 0749     		ldr	r1, .L12+4
 211 0034 2846     		mov	r0, r5
 212 0036 FFF7FEFF 		bl	sprintf
 213              	.LVL18:
  72:main.c        ****         UART_1_PutString("\r\n");
 214              		.loc 1 72 0
 215 003a 2846     		mov	r0, r5
 216 003c FFF7FEFF 		bl	UART_1_PutString
 217              	.LVL19:
  73:main.c        ****     }
 218              		.loc 1 73 0
 219 0040 0248     		ldr	r0, .L12
 220 0042 FFF7FEFF 		bl	UART_1_PutString
 221              	.LVL20:
 222              	.L8:
  75:main.c        **** 
 223              		.loc 1 75 0
 224 0046 03B0     		add	sp, sp, #12
 225              		.cfi_def_cfa_offset 20
 226              		@ sp needed
 227 0048 F0BD     		pop	{r4, r5, r6, r7, pc}
 228              	.LVL21:
 229              	.L13:
 230 004a 00BF     		.align	2
 231              	.L12:
 232 004c 00000000 		.word	.LC0
 233 0050 04000000 		.word	.LC1
 234              		.cfi_endproc
 235              	.LFE64:
 236              		.size	UART_STRING, .-UART_STRING
 237              		.global	__aeabi_dmul
 238              		.global	__aeabi_dadd
 239              		.global	__aeabi_dsub
 240              		.global	__aeabi_d2f
 241              		.global	__aeabi_fcmpgt
 242              		.global	__aeabi_fcmplt
ARM GAS  C:\Users\shiyu\AppData\Local\Temp\ccQNMXHz.s 			page 10


 243              		.global	__aeabi_fadd
 244              		.global	__aeabi_fmul
 245              		.section	.text.main,"ax",%progbits
 246              		.align	2
 247              		.global	main
 248              		.thumb
 249              		.thumb_func
 250              		.type	main, %function
 251              	main:
 252              	.LFB66:
 120:main.c        ****     //int16 output;
 253              		.loc 1 120 0
 254              		.cfi_startproc
 255              		@ args = 0, pretend = 0, frame = 0
 256              		@ frame_needed = 0, uses_anonymous_args = 0
 257 0000 2DE9F047 		push	{r4, r5, r6, r7, r8, r9, r10, lr}
 258              		.cfi_def_cfa_offset 32
 259              		.cfi_offset 4, -32
 260              		.cfi_offset 5, -28
 261              		.cfi_offset 6, -24
 262              		.cfi_offset 7, -20
 263              		.cfi_offset 8, -16
 264              		.cfi_offset 9, -12
 265              		.cfi_offset 10, -8
 266              		.cfi_offset 14, -4
 267 0004 82B0     		sub	sp, sp, #8
 268              		.cfi_def_cfa_offset 40
 124:main.c        **** 
 269              		.loc 1 124 0
 270              		.syntax unified
 271              	@ 124 "main.c" 1
 272 0006 62B6     		CPSIE   i
 273              	@ 0 "" 2
 127:main.c        ****     UART_1_Start();
 274              		.loc 1 127 0
 275              		.thumb
 276              		.syntax unified
 277 0008 FFF7FEFF 		bl	ADC_SAR_1_Start
 278              	.LVL22:
 128:main.c        ****     CAN_Start();
 279              		.loc 1 128 0
 280 000c FFF7FEFF 		bl	UART_1_Start
 281              	.LVL23:
 129:main.c        ****     AMux_Init();
 282              		.loc 1 129 0
 283 0010 FFF7FEFF 		bl	CAN_Start
 284              	.LVL24:
 130:main.c        ****     AMux_Start();
 285              		.loc 1 130 0
 286 0014 FFF7FEFF 		bl	AMux_Start
 287              	.LVL25:
 131:main.c        ****     //Interrupt
 288              		.loc 1 131 0
 289 0018 FFF7FEFF 		bl	AMux_Start
 290              	.LVL26:
 133:main.c        ****     Timer_Int_StartEx(Timer_Int_Handler);
 291              		.loc 1 133 0
ARM GAS  C:\Users\shiyu\AppData\Local\Temp\ccQNMXHz.s 			page 11


 292 001c FFF7FEFF 		bl	Timer_Start
 293              	.LVL27:
 134:main.c        **** 
 294              		.loc 1 134 0
 295 0020 9748     		ldr	r0, .L35+48
 296 0022 FFF7FEFF 		bl	Timer_Int_StartEx
 297              	.LVL28:
 137:main.c        **** 
 298              		.loc 1 137 0
 299 0026 9749     		ldr	r1, .L35+52
 300 0028 1020     		movs	r0, #16
 301 002a FFF7FEFF 		bl	CyIntSetVector
 302              	.LVL29:
 148:main.c        ****     for (;;)
 303              		.loc 1 148 0
 304 002e 0027     		movs	r7, #0
 305 0030 0097     		str	r7, [sp]
 306 0032 4FF07E53 		mov	r3, #1065353216
 307 0036 0122     		movs	r2, #1
 308 0038 9349     		ldr	r1, .L35+56
 309 003a 9448     		ldr	r0, .L35+60
 310 003c FFF7FEFF 		bl	UART_STRING
 311              	.LVL30:
 145:main.c        ****     
 312              		.loc 1 145 0
 313 0040 BA46     		mov	r10, r7
 314              	.LVL31:
 315              	.L29:
 152:main.c        ****             sprintf(outputstring, "Refreshed, count = %d",refresh_count );
 316              		.loc 1 152 0
 317 0042 BAF1050F 		cmp	r10, #5
 318 0046 13D1     		bne	.L15
 153:main.c        ****             UART_1_PutString(outputstring); // print value to UART
 319              		.loc 1 153 0
 320 0048 8F4C     		ldr	r4, .L35+56
 321 004a 5246     		mov	r2, r10
 322 004c 9049     		ldr	r1, .L35+64
 323 004e 2046     		mov	r0, r4
 324 0050 FFF7FEFF 		bl	sprintf
 325              	.LVL32:
 154:main.c        ****             UART_1_PutString("\r\n");
 326              		.loc 1 154 0
 327 0054 2046     		mov	r0, r4
 328 0056 FFF7FEFF 		bl	UART_1_PutString
 329              	.LVL33:
 155:main.c        ****             
 330              		.loc 1 155 0
 331 005a 8E48     		ldr	r0, .L35+68
 332 005c FFF7FEFF 		bl	UART_1_PutString
 333              	.LVL34:
 158:main.c        ****             min_temp = Temperature;
 334              		.loc 1 158 0
 335 0060 8D4B     		ldr	r3, .L35+72
 336 0062 1B68     		ldr	r3, [r3]	@ float
 337 0064 8D4A     		ldr	r2, .L35+76
 338 0066 5360     		str	r3, [r2, #4]	@ float
 159:main.c        **** 
ARM GAS  C:\Users\shiyu\AppData\Local\Temp\ccQNMXHz.s 			page 12


 339              		.loc 1 159 0
 340 0068 8D4A     		ldr	r2, .L35+80
 341 006a 1360     		str	r3, [r2]	@ float
 157:main.c        ****             max_temp = Temperature;
 342              		.loc 1 157 0
 343 006c 4FF0000A 		mov	r10, #0
 344              	.LVL35:
 345              	.L15:
 163:main.c        ****         {
 346              		.loc 1 163 0
 347 0070 0026     		movs	r6, #0
 348 0072 DEE0     		b	.L16
 349              	.LVL36:
 350              	.L28:
 351              	.LBB2:
 166:main.c        ****             ADC_SAR_1_StartConvert();
 352              		.loc 1 166 0
 353 0074 F0B2     		uxtb	r0, r6
 354 0076 FFF7FEFF 		bl	AMux_FastSelect
 355              	.LVL37:
 167:main.c        ****             //ADC_SAR_1_RETURN_STATUS is a system macro
 356              		.loc 1 167 0
 357 007a FFF7FEFF 		bl	ADC_SAR_1_StartConvert
 358              	.LVL38:
 359              	.L17:
 169:main.c        ****             {
 360              		.loc 1 169 0 discriminator 1
 361 007e 0120     		movs	r0, #1
 362 0080 FFF7FEFF 		bl	ADC_SAR_1_IsEndConversion
 363              	.LVL39:
 364 0084 0028     		cmp	r0, #0
 365 0086 FAD0     		beq	.L17
 366 0088 0025     		movs	r5, #0
 367 008a 2C46     		mov	r4, r5
 368 008c 04E0     		b	.L18
 369              	.LVL40:
 370              	.L19:
 371              	.LBB3:
 178:main.c        ****             }
 372              		.loc 1 178 0 discriminator 3
 373 008e FFF7FEFF 		bl	ADC_SAR_1_GetResult16
 374              	.LVL41:
 375 0092 2044     		add	r0, r0, r4
 376 0094 84B2     		uxth	r4, r0
 377              	.LVL42:
 176:main.c        ****             {
 378              		.loc 1 176 0 discriminator 3
 379 0096 0135     		adds	r5, r5, #1
 380              	.LVL43:
 381              	.L18:
 176:main.c        ****             {
 382              		.loc 1 176 0 is_stmt 0 discriminator 1
 383 0098 042D     		cmp	r5, #4
 384 009a F8DD     		ble	.L19
 385              	.LBE3:
 180:main.c        **** 
 386              		.loc 1 180 0 is_stmt 1
ARM GAS  C:\Users\shiyu\AppData\Local\Temp\ccQNMXHz.s 			page 13


 387 009c 8148     		ldr	r0, .L35+84
 388 009e A0FB0430 		umull	r3, r0, r0, r4
 389              	.LVL44:
 182:main.c        ****             resVolts = (uint16)voltage;
 390              		.loc 1 182 0
 391 00a2 40F38F00 		sbfx	r0, r0, #2, #16
 392              	.LVL45:
 393 00a6 FFF7FEFF 		bl	ADC_SAR_1_CountsTo_Volts
 394              	.LVL46:
 395 00aa 0446     		mov	r4, r0
 396              	.LVL47:
 187:main.c        ****             { 
 397              		.loc 1 187 0
 398 00ac 16F0010F 		tst	r6, #1
 399 00b0 02D1     		bne	.L20
 187:main.c        ****             { 
 400              		.loc 1 187 0 is_stmt 0 discriminator 1
 401 00b2 002E     		cmp	r6, #0
 402 00b4 40F0B680 		bne	.L21
 403              	.L20:
 189:main.c        ****                 // only update on even number of channels
 404              		.loc 1 189 0 is_stmt 1
 405 00b8 152E     		cmp	r6, #21
 406 00ba 00F0B380 		beq	.L21
 189:main.c        ****                 // only update on even number of channels
 407              		.loc 1 189 0 is_stmt 0 discriminator 1
 408 00be 352E     		cmp	r6, #53
 409 00c0 00F0B080 		beq	.L21
 191:main.c        **** //              BattTemp = -740.85 * bt5 + 7056.8 * bt4 - 26800 * bt3 + 50732 * bt2 - 47967 * bt1 +
 410              		.loc 1 191 0 is_stmt 1
 411 00c4 7849     		ldr	r1, .L35+88
 412 00c6 2046     		mov	r0, r4
 413              	.LVL48:
 414 00c8 FFF7FEFF 		bl	powf
 415              	.LVL49:
 416 00cc FFF7FEFF 		bl	__aeabi_f2d
 417              	.LVL50:
 418 00d0 5FA3     		adr	r3, .L35
 419 00d2 D3E90023 		ldrd	r2, [r3]
 420 00d6 FFF7FEFF 		bl	__aeabi_dmul
 421              	.LVL51:
 422 00da 8046     		mov	r8, r0
 423 00dc 8946     		mov	r9, r1
 424 00de 4FF08141 		mov	r1, #1082130432
 425 00e2 2046     		mov	r0, r4
 426 00e4 FFF7FEFF 		bl	powf
 427              	.LVL52:
 428 00e8 FFF7FEFF 		bl	__aeabi_f2d
 429              	.LVL53:
 430 00ec 5AA3     		adr	r3, .L35+8
 431 00ee D3E90023 		ldrd	r2, [r3]
 432 00f2 FFF7FEFF 		bl	__aeabi_dmul
 433              	.LVL54:
 434 00f6 0246     		mov	r2, r0
 435 00f8 0B46     		mov	r3, r1
 436 00fa 4046     		mov	r0, r8
 437 00fc 4946     		mov	r1, r9
ARM GAS  C:\Users\shiyu\AppData\Local\Temp\ccQNMXHz.s 			page 14


 438 00fe FFF7FEFF 		bl	__aeabi_dadd
 439              	.LVL55:
 440 0102 8046     		mov	r8, r0
 441 0104 8946     		mov	r9, r1
 442 0106 6949     		ldr	r1, .L35+92
 443 0108 2046     		mov	r0, r4
 444 010a FFF7FEFF 		bl	powf
 445              	.LVL56:
 446 010e FFF7FEFF 		bl	__aeabi_f2d
 447              	.LVL57:
 448 0112 53A3     		adr	r3, .L35+16
 449 0114 D3E90023 		ldrd	r2, [r3]
 450 0118 FFF7FEFF 		bl	__aeabi_dmul
 451              	.LVL58:
 452 011c 0246     		mov	r2, r0
 453 011e 0B46     		mov	r3, r1
 454 0120 4046     		mov	r0, r8
 455 0122 4946     		mov	r1, r9
 456 0124 FFF7FEFF 		bl	__aeabi_dadd
 457              	.LVL59:
 458 0128 8046     		mov	r8, r0
 459 012a 8946     		mov	r9, r1
 460 012c 4FF08041 		mov	r1, #1073741824
 461 0130 2046     		mov	r0, r4
 462 0132 FFF7FEFF 		bl	powf
 463              	.LVL60:
 464 0136 FFF7FEFF 		bl	__aeabi_f2d
 465              	.LVL61:
 466 013a 4BA3     		adr	r3, .L35+24
 467 013c D3E90023 		ldrd	r2, [r3]
 468 0140 FFF7FEFF 		bl	__aeabi_dmul
 469              	.LVL62:
 470 0144 0246     		mov	r2, r0
 471 0146 0B46     		mov	r3, r1
 472 0148 4046     		mov	r0, r8
 473 014a 4946     		mov	r1, r9
 474 014c FFF7FEFF 		bl	__aeabi_dadd
 475              	.LVL63:
 476 0150 8046     		mov	r8, r0
 477 0152 8946     		mov	r9, r1
 478 0154 2046     		mov	r0, r4
 479 0156 FFF7FEFF 		bl	__aeabi_f2d
 480              	.LVL64:
 481 015a 45A3     		adr	r3, .L35+32
 482 015c D3E90023 		ldrd	r2, [r3]
 483 0160 FFF7FEFF 		bl	__aeabi_dmul
 484              	.LVL65:
 485 0164 0246     		mov	r2, r0
 486 0166 0B46     		mov	r3, r1
 487 0168 4046     		mov	r0, r8
 488 016a 4946     		mov	r1, r9
 489 016c FFF7FEFF 		bl	__aeabi_dsub
 490              	.LVL66:
 491 0170 41A3     		adr	r3, .L35+40
 492 0172 D3E90023 		ldrd	r2, [r3]
 493 0176 FFF7FEFF 		bl	__aeabi_dadd
 494              	.LVL67:
ARM GAS  C:\Users\shiyu\AppData\Local\Temp\ccQNMXHz.s 			page 15


 495 017a FFF7FEFF 		bl	__aeabi_d2f
 496              	.LVL68:
 497 017e 0546     		mov	r5, r0
 498              	.LVL69:
 499 0180 454B     		ldr	r3, .L35+72
 500 0182 1860     		str	r0, [r3]	@ float
 194:main.c        ****                 {
 501              		.loc 1 194 0
 502 0184 454B     		ldr	r3, .L35+76
 503 0186 5968     		ldr	r1, [r3, #4]	@ float
 504 0188 FFF7FEFF 		bl	__aeabi_fcmpgt
 505              	.LVL70:
 506 018c 30B1     		cbz	r0, .L22
 194:main.c        ****                 {
 507              		.loc 1 194 0 is_stmt 0 discriminator 1
 508 018e 4849     		ldr	r1, .L35+96
 509 0190 2846     		mov	r0, r5
 510 0192 FFF7FEFF 		bl	__aeabi_fcmplt
 511              	.LVL71:
 512 0196 08B1     		cbz	r0, .L22
 196:main.c        ****                 }
 513              		.loc 1 196 0 is_stmt 1
 514 0198 404B     		ldr	r3, .L35+76
 515 019a 5D60     		str	r5, [r3, #4]	@ float
 516              	.L22:
 198:main.c        ****                 {
 517              		.loc 1 198 0
 518 019c 404B     		ldr	r3, .L35+80
 519 019e 1968     		ldr	r1, [r3]	@ float
 520 01a0 2846     		mov	r0, r5
 521 01a2 FFF7FEFF 		bl	__aeabi_fcmplt
 522              	.LVL72:
 523 01a6 30B1     		cbz	r0, .L25
 198:main.c        ****                 {
 524              		.loc 1 198 0 is_stmt 0 discriminator 1
 525 01a8 4249     		ldr	r1, .L35+100
 526 01aa 2846     		mov	r0, r5
 527 01ac FFF7FEFF 		bl	__aeabi_fcmpgt
 528              	.LVL73:
 529 01b0 08B1     		cbz	r0, .L25
 200:main.c        ****                 }
 530              		.loc 1 200 0 is_stmt 1
 531 01b2 3B4B     		ldr	r3, .L35+80
 532 01b4 1D60     		str	r5, [r3]	@ float
 533              	.L25:
 203:main.c        ****                 UART_STRING("Channel %d is %6.3f C Degree", outputstring, (int)ch, Temperature, MOD
 534              		.loc 1 203 0
 535 01b6 DFF8E480 		ldr	r8, .L35+76
 536 01ba 394F     		ldr	r7, .L35+80
 537 01bc 3968     		ldr	r1, [r7]	@ float
 538 01be D8F80400 		ldr	r0, [r8, #4]	@ float
 539 01c2 FFF7FEFF 		bl	__aeabi_fadd
 540              	.LVL74:
 541 01c6 4FF07C51 		mov	r1, #1056964608
 542 01ca FFF7FEFF 		bl	__aeabi_fmul
 543              	.LVL75:
 544 01ce C8F80800 		str	r0, [r8, #8]	@ float
ARM GAS  C:\Users\shiyu\AppData\Local\Temp\ccQNMXHz.s 			page 16


 204:main.c        ****                 sprintf(outputstring, "max temp is %6.3f C/Degree", max_temp);
 545              		.loc 1 204 0
 546 01d2 2D4C     		ldr	r4, .L35+56
 547              	.LVL76:
 548 01d4 0123     		movs	r3, #1
 549 01d6 0093     		str	r3, [sp]
 550 01d8 2B46     		mov	r3, r5
 551 01da 3246     		mov	r2, r6
 552 01dc 2146     		mov	r1, r4
 553 01de 3648     		ldr	r0, .L35+104
 554 01e0 FFF7FEFF 		bl	UART_STRING
 555              	.LVL77:
 205:main.c        ****                 UART_1_PutString(outputstring); // print value to UART
 556              		.loc 1 205 0
 557 01e4 D8F80400 		ldr	r0, [r8, #4]	@ float
 558 01e8 FFF7FEFF 		bl	__aeabi_f2d
 559              	.LVL78:
 560 01ec 0246     		mov	r2, r0
 561 01ee 0B46     		mov	r3, r1
 562 01f0 3249     		ldr	r1, .L35+108
 563 01f2 2046     		mov	r0, r4
 564 01f4 FFF7FEFF 		bl	sprintf
 565              	.LVL79:
 206:main.c        ****                 UART_1_PutString("\r\n");
 566              		.loc 1 206 0
 567 01f8 2046     		mov	r0, r4
 568 01fa FFF7FEFF 		bl	UART_1_PutString
 569              	.LVL80:
 207:main.c        ****                 sprintf(outputstring, "min temp is %6.3f C/Degree", min_temp);
 570              		.loc 1 207 0
 571 01fe 254D     		ldr	r5, .L35+68
 572 0200 2846     		mov	r0, r5
 573 0202 FFF7FEFF 		bl	UART_1_PutString
 574              	.LVL81:
 208:main.c        ****                 UART_1_PutString(outputstring); // print value to UART
 575              		.loc 1 208 0
 576 0206 3868     		ldr	r0, [r7]	@ float
 577 0208 FFF7FEFF 		bl	__aeabi_f2d
 578              	.LVL82:
 579 020c 0246     		mov	r2, r0
 580 020e 0B46     		mov	r3, r1
 581 0210 2B49     		ldr	r1, .L35+112
 582 0212 2046     		mov	r0, r4
 583 0214 FFF7FEFF 		bl	sprintf
 584              	.LVL83:
 209:main.c        ****                 UART_1_PutString("\r\n");
 585              		.loc 1 209 0
 586 0218 2046     		mov	r0, r4
 587 021a FFF7FEFF 		bl	UART_1_PutString
 588              	.LVL84:
 210:main.c        ****                 }
 589              		.loc 1 210 0
 590 021e 2846     		mov	r0, r5
 591 0220 FFF7FEFF 		bl	UART_1_PutString
 592              	.LVL85:
 593              	.L21:
 214:main.c        ****             ADC_SAR_1_StopConvert();
ARM GAS  C:\Users\shiyu\AppData\Local\Temp\ccQNMXHz.s 			page 17


 594              		.loc 1 214 0 discriminator 2
 595 0224 6420     		movs	r0, #100
 596 0226 FFF7FEFF 		bl	CyDelay
 597              	.LVL86:
 215:main.c        ****             //finished one channel
 598              		.loc 1 215 0 discriminator 2
 599 022a FFF7FEFF 		bl	ADC_SAR_1_StopConvert
 600              	.LVL87:
 601              	.LBE2:
 163:main.c        ****         {
 602              		.loc 1 163 0 discriminator 2
 603 022e 0136     		adds	r6, r6, #1
 604              	.LVL88:
 605 0230 B6B2     		uxth	r6, r6
 606              	.LVL89:
 607              	.L16:
 163:main.c        ****         {
 608              		.loc 1 163 0 is_stmt 0 discriminator 1
 609 0232 422E     		cmp	r6, #66
 610 0234 7FF61EAF 		bls	.L28
 219:main.c        ****         UART_STRING("one interation", outputstring, (int)DUMMY, DUMMY, MODE_NORMAL);
 611              		.loc 1 219 0 is_stmt 1
 612 0238 0AF1010A 		add	r10, r10, #1
 613              	.LVL90:
 220:main.c        ****         //CyDelay(1000);
 614              		.loc 1 220 0
 615 023c 0023     		movs	r3, #0
 616 023e 0093     		str	r3, [sp]
 617 0240 4FF07E53 		mov	r3, #1065353216
 618 0244 0122     		movs	r2, #1
 619 0246 1049     		ldr	r1, .L35+56
 620 0248 1E48     		ldr	r0, .L35+116
 621 024a FFF7FEFF 		bl	UART_STRING
 622              	.LVL91:
 222:main.c        **** }
 623              		.loc 1 222 0
 624 024e F8E6     		b	.L29
 625              	.L36:
 626              		.align	3
 627              	.L35:
 628 0250 CDCCCCCC 		.word	-858993459
 629 0254 CC2687C0 		.word	-1064884532
 630 0258 CDCCCCCC 		.word	-858993459
 631 025c CC90BB40 		.word	1086034124
 632 0260 00000000 		.word	0
 633 0264 002CDAC0 		.word	-1059443712
 634 0268 00000000 		.word	0
 635 026c 80C5E840 		.word	1088996736
 636 0270 00000000 		.word	0
 637 0274 E06BE740 		.word	1088908256
 638 0278 00000000 		.word	0
 639 027c 40C9D140 		.word	1087490368
 640 0280 00000000 		.word	Timer_Int_Handler
 641 0284 00000000 		.word	ISR_CAN
 642 0288 00000000 		.word	outputstring
 643 028c 24000000 		.word	.LC2
 644 0290 34000000 		.word	.LC3
ARM GAS  C:\Users\shiyu\AppData\Local\Temp\ccQNMXHz.s 			page 18


 645 0294 00000000 		.word	.LC0
 646 0298 00000000 		.word	Temperature
 647 029c 00000000 		.word	.LANCHOR0
 648 02a0 00000000 		.word	.LANCHOR1
 649 02a4 CDCCCCCC 		.word	-858993459
 650 02a8 0000A040 		.word	1084227584
 651 02ac 00004040 		.word	1077936128
 652 02b0 0000F042 		.word	1123024896
 653 02b4 000020C2 		.word	-1038090240
 654 02b8 4C000000 		.word	.LC4
 655 02bc 6C000000 		.word	.LC5
 656 02c0 88000000 		.word	.LC6
 657 02c4 A4000000 		.word	.LC7
 658              		.cfi_endproc
 659              	.LFE66:
 660              		.size	main, .-main
 661              		.global	isrFlag
 662              		.comm	Temperature,4,4
 663              		.global	avg_temp
 664              		.global	min_temp
 665              		.global	max_temp
 666              		.comm	outputstring,50,4
 667              		.global	switchState
 668              		.data
 669              		.align	2
 670              		.set	.LANCHOR1,. + 0
 671              		.type	min_temp, %object
 672              		.size	min_temp, 4
 673              	min_temp:
 674 0000 00007041 		.word	1097859072
 675              		.type	switchState, %object
 676              		.size	switchState, 1
 677              	switchState:
 678 0004 01       		.byte	1
 679              		.section	.rodata.str1.4,"aMS",%progbits,1
 680              		.align	2
 681              	.LC0:
 682 0000 0D0A00   		.ascii	"\015\012\000"
 683 0003 00       		.space	1
 684              	.LC1:
 685 0004 4368616E 		.ascii	"Channel %d is %6.3f C/Degree\000"
 685      6E656C20 
 685      25642069 
 685      73202536 
 685      2E336620 
 686 0021 000000   		.space	3
 687              	.LC2:
 688 0024 53746172 		.ascii	"Starting now\000"
 688      74696E67 
 688      206E6F77 
 688      00
 689 0031 000000   		.space	3
 690              	.LC3:
 691 0034 52656672 		.ascii	"Refreshed, count = %d\000"
 691      65736865 
 691      642C2063 
 691      6F756E74 
ARM GAS  C:\Users\shiyu\AppData\Local\Temp\ccQNMXHz.s 			page 19


 691      203D2025 
 692 004a 0000     		.space	2
 693              	.LC4:
 694 004c 4368616E 		.ascii	"Channel %d is %6.3f C Degree\000"
 694      6E656C20 
 694      25642069 
 694      73202536 
 694      2E336620 
 695 0069 000000   		.space	3
 696              	.LC5:
 697 006c 6D617820 		.ascii	"max temp is %6.3f C/Degree\000"
 697      74656D70 
 697      20697320 
 697      25362E33 
 697      6620432F 
 698 0087 00       		.space	1
 699              	.LC6:
 700 0088 6D696E20 		.ascii	"min temp is %6.3f C/Degree\000"
 700      74656D70 
 700      20697320 
 700      25362E33 
 700      6620432F 
 701 00a3 00       		.space	1
 702              	.LC7:
 703 00a4 6F6E6520 		.ascii	"one interation\000"
 703      696E7465 
 703      72617469 
 703      6F6E00
 704              		.bss
 705              		.align	2
 706              		.set	.LANCHOR0,. + 0
 707              		.type	isrFlag, %object
 708              		.size	isrFlag, 1
 709              	isrFlag:
 710 0000 00       		.space	1
 711 0001 000000   		.space	3
 712              		.type	max_temp, %object
 713              		.size	max_temp, 4
 714              	max_temp:
 715 0004 00000000 		.space	4
 716              		.type	avg_temp, %object
 717              		.size	avg_temp, 4
 718              	avg_temp:
 719 0008 00000000 		.space	4
 720              		.text
 721              	.Letext0:
 722              		.file 2 "c:\\program files (x86)\\cypress\\psoc creator\\4.2\\psoc creator\\import\\gnu\\arm\\5.4.
 723              		.file 3 "c:\\program files (x86)\\cypress\\psoc creator\\4.2\\psoc creator\\import\\gnu\\arm\\5.4.
 724              		.file 4 "Generated_Source\\PSoC5/cytypes.h"
 725              		.file 5 "Generated_Source\\PSoC5/CAN.h"
 726              		.file 6 "Generated_Source\\PSoC5/core_cm3.h"
 727              		.file 7 "Generated_Source\\PSoC5/UART_1.h"
 728              		.file 8 "c:\\program files (x86)\\cypress\\psoc creator\\4.2\\psoc creator\\import\\gnu\\arm\\5.4.
 729              		.file 9 "Generated_Source\\PSoC5/ADC_SAR_1.h"
 730              		.file 10 "Generated_Source\\PSoC5/AMux.h"
 731              		.file 11 "c:\\program files (x86)\\cypress\\psoc creator\\4.2\\psoc creator\\import\\gnu\\arm\\5.4
 732              		.file 12 "Generated_Source\\PSoC5/CyLib.h"
ARM GAS  C:\Users\shiyu\AppData\Local\Temp\ccQNMXHz.s 			page 20


 733              		.file 13 "Generated_Source\\PSoC5/Timer.h"
 734              		.file 14 "Generated_Source\\PSoC5/Timer_Int.h"